
FUck_binary:     file format elf64-x86-64


Disassembly of section .init:

00000000004008e8 <_init>:
  4008e8:	48 83 ec 08          	sub    $0x8,%rsp
  4008ec:	48 8b 05 05 57 20 00 	mov    0x205705(%rip),%rax        # 605ff8 <_DYNAMIC+0x1f0>
  4008f3:	48 85 c0             	test   %rax,%rax
  4008f6:	74 05                	je     4008fd <_init+0x15>
  4008f8:	e8 23 01 00 00       	callq  400a20 <close@plt+0x10>
  4008fd:	48 83 c4 08          	add    $0x8,%rsp
  400901:	c3                   	retq   

Disassembly of section .plt:

0000000000400910 <setvbuf@plt-0x10>:
  400910:	ff 35 f2 56 20 00    	pushq  0x2056f2(%rip)        # 606008 <_GLOBAL_OFFSET_TABLE_+0x8>
  400916:	ff 25 f4 56 20 00    	jmpq   *0x2056f4(%rip)        # 606010 <_GLOBAL_OFFSET_TABLE_+0x10>
  40091c:	0f 1f 40 00          	nopl   0x0(%rax)

0000000000400920 <setvbuf@plt>:
  400920:	ff 25 f2 56 20 00    	jmpq   *0x2056f2(%rip)        # 606018 <_GLOBAL_OFFSET_TABLE_+0x18>
  400926:	68 00 00 00 00       	pushq  $0x0
  40092b:	e9 e0 ff ff ff       	jmpq   400910 <_init+0x28>

0000000000400930 <printf@plt>:
  400930:	ff 25 ea 56 20 00    	jmpq   *0x2056ea(%rip)        # 606020 <_GLOBAL_OFFSET_TABLE_+0x20>
  400936:	68 01 00 00 00       	pushq  $0x1
  40093b:	e9 d0 ff ff ff       	jmpq   400910 <_init+0x28>

0000000000400940 <fork@plt>:
  400940:	ff 25 e2 56 20 00    	jmpq   *0x2056e2(%rip)        # 606028 <_GLOBAL_OFFSET_TABLE_+0x28>
  400946:	68 02 00 00 00       	pushq  $0x2
  40094b:	e9 c0 ff ff ff       	jmpq   400910 <_init+0x28>

0000000000400950 <get_flag@plt>:
  400950:	ff 25 da 56 20 00    	jmpq   *0x2056da(%rip)        # 606030 <_GLOBAL_OFFSET_TABLE_+0x30>
  400956:	68 03 00 00 00       	pushq  $0x3
  40095b:	e9 b0 ff ff ff       	jmpq   400910 <_init+0x28>

0000000000400960 <write@plt>:
  400960:	ff 25 d2 56 20 00    	jmpq   *0x2056d2(%rip)        # 606038 <_GLOBAL_OFFSET_TABLE_+0x38>
  400966:	68 04 00 00 00       	pushq  $0x4
  40096b:	e9 a0 ff ff ff       	jmpq   400910 <_init+0x28>

0000000000400970 <sleep@plt>:
  400970:	ff 25 ca 56 20 00    	jmpq   *0x2056ca(%rip)        # 606040 <_GLOBAL_OFFSET_TABLE_+0x40>
  400976:	68 05 00 00 00       	pushq  $0x5
  40097b:	e9 90 ff ff ff       	jmpq   400910 <_init+0x28>

0000000000400980 <waitpid@plt>:
  400980:	ff 25 c2 56 20 00    	jmpq   *0x2056c2(%rip)        # 606048 <_GLOBAL_OFFSET_TABLE_+0x48>
  400986:	68 06 00 00 00       	pushq  $0x6
  40098b:	e9 80 ff ff ff       	jmpq   400910 <_init+0x28>

0000000000400990 <memcpy@plt>:
  400990:	ff 25 ba 56 20 00    	jmpq   *0x2056ba(%rip)        # 606050 <_GLOBAL_OFFSET_TABLE_+0x50>
  400996:	68 07 00 00 00       	pushq  $0x7
  40099b:	e9 70 ff ff ff       	jmpq   400910 <_init+0x28>

00000000004009a0 <fflush@plt>:
  4009a0:	ff 25 b2 56 20 00    	jmpq   *0x2056b2(%rip)        # 606058 <_GLOBAL_OFFSET_TABLE_+0x58>
  4009a6:	68 08 00 00 00       	pushq  $0x8
  4009ab:	e9 60 ff ff ff       	jmpq   400910 <_init+0x28>

00000000004009b0 <getenv@plt>:
  4009b0:	ff 25 aa 56 20 00    	jmpq   *0x2056aa(%rip)        # 606060 <_GLOBAL_OFFSET_TABLE_+0x60>
  4009b6:	68 09 00 00 00       	pushq  $0x9
  4009bb:	e9 50 ff ff ff       	jmpq   400910 <_init+0x28>

00000000004009c0 <shmat@plt>:
  4009c0:	ff 25 a2 56 20 00    	jmpq   *0x2056a2(%rip)        # 606068 <_GLOBAL_OFFSET_TABLE_+0x68>
  4009c6:	68 0a 00 00 00       	pushq  $0xa
  4009cb:	e9 40 ff ff ff       	jmpq   400910 <_init+0x28>

00000000004009d0 <read@plt>:
  4009d0:	ff 25 9a 56 20 00    	jmpq   *0x20569a(%rip)        # 606070 <_GLOBAL_OFFSET_TABLE_+0x70>
  4009d6:	68 0b 00 00 00       	pushq  $0xb
  4009db:	e9 30 ff ff ff       	jmpq   400910 <_init+0x28>

00000000004009e0 <atoi@plt>:
  4009e0:	ff 25 92 56 20 00    	jmpq   *0x205692(%rip)        # 606078 <_GLOBAL_OFFSET_TABLE_+0x78>
  4009e6:	68 0c 00 00 00       	pushq  $0xc
  4009eb:	e9 20 ff ff ff       	jmpq   400910 <_init+0x28>

00000000004009f0 <_exit@plt>:
  4009f0:	ff 25 8a 56 20 00    	jmpq   *0x20568a(%rip)        # 606080 <_GLOBAL_OFFSET_TABLE_+0x80>
  4009f6:	68 0d 00 00 00       	pushq  $0xd
  4009fb:	e9 10 ff ff ff       	jmpq   400910 <_init+0x28>

0000000000400a00 <__libc_start_main@plt>:
  400a00:	ff 25 82 56 20 00    	jmpq   *0x205682(%rip)        # 606088 <_GLOBAL_OFFSET_TABLE_+0x88>
  400a06:	68 0e 00 00 00       	pushq  $0xe
  400a0b:	e9 00 ff ff ff       	jmpq   400910 <_init+0x28>

0000000000400a10 <close@plt>:
  400a10:	ff 25 7a 56 20 00    	jmpq   *0x20567a(%rip)        # 606090 <_GLOBAL_OFFSET_TABLE_+0x90>
  400a16:	68 0f 00 00 00       	pushq  $0xf
  400a1b:	e9 f0 fe ff ff       	jmpq   400910 <_init+0x28>

Disassembly of section .plt.got:

0000000000400a20 <.plt.got>:
  400a20:	ff 25 d2 55 20 00    	jmpq   *0x2055d2(%rip)        # 605ff8 <_DYNAMIC+0x1f0>
  400a26:	66 90                	xchg   %ax,%ax

Disassembly of section .text:

0000000000400a30 <_start>:
  400a30:	31 ed                	xor    %ebp,%ebp
  400a32:	49 89 d1             	mov    %rdx,%r9
  400a35:	5e                   	pop    %rsi
  400a36:	48 89 e2             	mov    %rsp,%rdx
  400a39:	48 83 e4 f0          	and    $0xfffffffffffffff0,%rsp
  400a3d:	50                   	push   %rax
  400a3e:	54                   	push   %rsp
  400a3f:	49 c7 c0 90 56 40 00 	mov    $0x405690,%r8
  400a46:	48 c7 c1 20 56 40 00 	mov    $0x405620,%rcx
  400a4d:	48 c7 c7 30 0b 40 00 	mov    $0x400b30,%rdi
  400a54:	e8 a7 ff ff ff       	callq  400a00 <__libc_start_main@plt>
  400a59:	f4                   	hlt    
  400a5a:	66 0f 1f 44 00 00    	nopw   0x0(%rax,%rax,1)

0000000000400a60 <deregister_tm_clones>:
  400a60:	b8 af 60 60 00       	mov    $0x6060af,%eax
  400a65:	55                   	push   %rbp
  400a66:	48 2d a8 60 60 00    	sub    $0x6060a8,%rax
  400a6c:	48 83 f8 0e          	cmp    $0xe,%rax
  400a70:	48 89 e5             	mov    %rsp,%rbp
  400a73:	76 1b                	jbe    400a90 <deregister_tm_clones+0x30>
  400a75:	b8 00 00 00 00       	mov    $0x0,%eax
  400a7a:	48 85 c0             	test   %rax,%rax
  400a7d:	74 11                	je     400a90 <deregister_tm_clones+0x30>
  400a7f:	5d                   	pop    %rbp
  400a80:	bf a8 60 60 00       	mov    $0x6060a8,%edi
  400a85:	ff e0                	jmpq   *%rax
  400a87:	66 0f 1f 84 00 00 00 	nopw   0x0(%rax,%rax,1)
  400a8e:	00 00 
  400a90:	5d                   	pop    %rbp
  400a91:	c3                   	retq   
  400a92:	0f 1f 40 00          	nopl   0x0(%rax)
  400a96:	66 2e 0f 1f 84 00 00 	nopw   %cs:0x0(%rax,%rax,1)
  400a9d:	00 00 00 

0000000000400aa0 <register_tm_clones>:
  400aa0:	be a8 60 60 00       	mov    $0x6060a8,%esi
  400aa5:	55                   	push   %rbp
  400aa6:	48 81 ee a8 60 60 00 	sub    $0x6060a8,%rsi
  400aad:	48 c1 fe 03          	sar    $0x3,%rsi
  400ab1:	48 89 e5             	mov    %rsp,%rbp
  400ab4:	48 89 f0             	mov    %rsi,%rax
  400ab7:	48 c1 e8 3f          	shr    $0x3f,%rax
  400abb:	48 01 c6             	add    %rax,%rsi
  400abe:	48 d1 fe             	sar    %rsi
  400ac1:	74 15                	je     400ad8 <register_tm_clones+0x38>
  400ac3:	b8 00 00 00 00       	mov    $0x0,%eax
  400ac8:	48 85 c0             	test   %rax,%rax
  400acb:	74 0b                	je     400ad8 <register_tm_clones+0x38>
  400acd:	5d                   	pop    %rbp
  400ace:	bf a8 60 60 00       	mov    $0x6060a8,%edi
  400ad3:	ff e0                	jmpq   *%rax
  400ad5:	0f 1f 00             	nopl   (%rax)
  400ad8:	5d                   	pop    %rbp
  400ad9:	c3                   	retq   
  400ada:	66 0f 1f 44 00 00    	nopw   0x0(%rax,%rax,1)

0000000000400ae0 <__do_global_dtors_aux>:
  400ae0:	80 3d e1 55 20 00 00 	cmpb   $0x0,0x2055e1(%rip)        # 6060c8 <completed.7585>
  400ae7:	75 11                	jne    400afa <__do_global_dtors_aux+0x1a>
  400ae9:	55                   	push   %rbp
  400aea:	48 89 e5             	mov    %rsp,%rbp
  400aed:	e8 6e ff ff ff       	callq  400a60 <deregister_tm_clones>
  400af2:	5d                   	pop    %rbp
  400af3:	c6 05 ce 55 20 00 01 	movb   $0x1,0x2055ce(%rip)        # 6060c8 <completed.7585>
  400afa:	f3 c3                	repz retq 
  400afc:	0f 1f 40 00          	nopl   0x0(%rax)

0000000000400b00 <frame_dummy>:
  400b00:	bf 00 5e 60 00       	mov    $0x605e00,%edi
  400b05:	48 83 3f 00          	cmpq   $0x0,(%rdi)
  400b09:	75 05                	jne    400b10 <frame_dummy+0x10>
  400b0b:	eb 93                	jmp    400aa0 <register_tm_clones>
  400b0d:	0f 1f 00             	nopl   (%rax)
  400b10:	b8 00 00 00 00       	mov    $0x0,%eax
  400b15:	48 85 c0             	test   %rax,%rax
  400b18:	74 f1                	je     400b0b <frame_dummy+0xb>
  400b1a:	55                   	push   %rbp
  400b1b:	48 89 e5             	mov    %rsp,%rbp
  400b1e:	ff d0                	callq  *%rax
  400b20:	5d                   	pop    %rbp
  400b21:	e9 7a ff ff ff       	jmpq   400aa0 <register_tm_clones>
  400b26:	66 2e 0f 1f 84 00 00 	nopw   %cs:0x0(%rax,%rax,1)
  400b2d:	00 00 00 

0000000000400b30 <main>:
  400b30:	48 8d a4 24 68 ff ff 	lea    -0x98(%rsp),%rsp
  400b37:	ff 
  400b38:	48 89 14 24          	mov    %rdx,(%rsp)
  400b3c:	48 89 4c 24 08       	mov    %rcx,0x8(%rsp)
  400b41:	48 89 44 24 10       	mov    %rax,0x10(%rsp)
  400b46:	48 c7 c1 e9 cc 00 00 	mov    $0xcce9,%rcx
  400b4d:	e8 d6 46 00 00       	callq  405228 <__afl_maybe_log>
  400b52:	48 8b 44 24 10       	mov    0x10(%rsp),%rax
  400b57:	48 8b 4c 24 08       	mov    0x8(%rsp),%rcx
  400b5c:	48 8b 14 24          	mov    (%rsp),%rdx
  400b60:	48 8d a4 24 98 00 00 	lea    0x98(%rsp),%rsp
  400b67:	00 
  400b68:	55                   	push   %rbp
  400b69:	48 89 e5             	mov    %rsp,%rbp
  400b6c:	48 81 ec 10 03 00 00 	sub    $0x310,%rsp
  400b73:	31 c0                	xor    %eax,%eax
  400b75:	89 c1                	mov    %eax,%ecx
  400b77:	ba 02 00 00 00       	mov    $0x2,%edx
  400b7c:	c7 45 fc 00 00 00 00 	movl   $0x0,-0x4(%rbp)
  400b83:	c7 85 a8 fd ff ff 00 	movl   $0x0,-0x258(%rbp)
  400b8a:	00 00 00 
  400b8d:	c7 85 a4 fd ff ff 00 	movl   $0x0,-0x25c(%rbp)
  400b94:	00 00 00 
  400b97:	48 8b 3c 25 c0 60 60 	mov    0x6060c0,%rdi
  400b9e:	00 
  400b9f:	48 89 ce             	mov    %rcx,%rsi
  400ba2:	e8 79 fd ff ff       	callq  400920 <setvbuf@plt>
  400ba7:	31 d2                	xor    %edx,%edx
  400ba9:	89 d1                	mov    %edx,%ecx
  400bab:	ba 02 00 00 00       	mov    $0x2,%edx
  400bb0:	48 8b 3c 25 b0 60 60 	mov    0x6060b0,%rdi
  400bb7:	00 
  400bb8:	48 89 ce             	mov    %rcx,%rsi
  400bbb:	89 85 a0 fd ff ff    	mov    %eax,-0x260(%rbp)
  400bc1:	e8 5a fd ff ff       	callq  400920 <setvbuf@plt>
  400bc6:	48 bf a4 56 40 00 00 	movabs $0x4056a4,%rdi
  400bcd:	00 00 00 
  400bd0:	89 85 9c fd ff ff    	mov    %eax,-0x264(%rbp)
  400bd6:	b0 00                	mov    $0x0,%al
  400bd8:	e8 53 fd ff ff       	callq  400930 <printf@plt>
  400bdd:	31 d2                	xor    %edx,%edx
  400bdf:	89 d7                	mov    %edx,%edi
  400be1:	89 85 98 fd ff ff    	mov    %eax,-0x268(%rbp)
  400be7:	e8 b4 fd ff ff       	callq  4009a0 <fflush@plt>
  400bec:	31 ff                	xor    %edi,%edi
  400bee:	ba 2c 01 00 00       	mov    $0x12c,%edx
  400bf3:	48 8d b5 b0 fe ff ff 	lea    -0x150(%rbp),%rsi
  400bfa:	89 85 94 fd ff ff    	mov    %eax,-0x26c(%rbp)
  400c00:	e8 cb fd ff ff       	callq  4009d0 <read@plt>
  400c05:	44 8a 85 08 ff ff ff 	mov    -0xf8(%rbp),%r8b
  400c0c:	44 88 85 af fd ff ff 	mov    %r8b,-0x251(%rbp)
  400c13:	c6 85 ae fd ff ff 1b 	movb   $0x1b,-0x252(%rbp)
  400c1a:	0f be bd af fd ff ff 	movsbl -0x251(%rbp),%edi
  400c21:	44 0f be 8d ae fd ff 	movsbl -0x252(%rbp),%r9d
  400c28:	ff 
  400c29:	44 31 cf             	xor    %r9d,%edi
  400c2c:	83 ff 77             	cmp    $0x77,%edi
  400c2f:	48 89 85 88 fd ff ff 	mov    %rax,-0x278(%rbp)
  400c36:	0f 84 76 45 00 00    	je     4051b2 <main+0x4682>
  400c3c:	48 8d a4 24 68 ff ff 	lea    -0x98(%rsp),%rsp
  400c43:	ff 
  400c44:	48 89 14 24          	mov    %rdx,(%rsp)
  400c48:	48 89 4c 24 08       	mov    %rcx,0x8(%rsp)
  400c4d:	48 89 44 24 10       	mov    %rax,0x10(%rsp)
  400c52:	48 c7 c1 71 7a 00 00 	mov    $0x7a71,%rcx
  400c59:	e8 ca 45 00 00       	callq  405228 <__afl_maybe_log>
  400c5e:	48 8b 44 24 10       	mov    0x10(%rsp),%rax
  400c63:	48 8b 4c 24 08       	mov    0x8(%rsp),%rcx
  400c68:	48 8b 14 24          	mov    (%rsp),%rdx
  400c6c:	48 8d a4 24 98 00 00 	lea    0x98(%rsp),%rsp
  400c73:	00 
  400c74:	b8 ff 00 00 00       	mov    $0xff,%eax
  400c79:	b9 08 00 00 00       	mov    $0x8,%ecx
  400c7e:	8a 95 c0 fe ff ff    	mov    -0x140(%rbp),%dl
  400c84:	88 95 af fd ff ff    	mov    %dl,-0x251(%rbp)
  400c8a:	c6 85 ae fd ff ff 04 	movb   $0x4,-0x252(%rbp)
  400c91:	0f be b5 af fd ff ff 	movsbl -0x251(%rbp),%esi
  400c98:	0f be bd ae fd ff ff 	movsbl -0x252(%rbp),%edi
  400c9f:	89 8d 84 fd ff ff    	mov    %ecx,-0x27c(%rbp)
  400ca5:	89 f9                	mov    %edi,%ecx
  400ca7:	d3 e6                	shl    %cl,%esi
  400ca9:	81 e6 ff 00 00 00    	and    $0xff,%esi
  400caf:	0f be bd af fd ff ff 	movsbl -0x251(%rbp),%edi
  400cb6:	44 0f be 85 ae fd ff 	movsbl -0x252(%rbp),%r8d
  400cbd:	ff 
  400cbe:	44 8b 8d 84 fd ff ff 	mov    -0x27c(%rbp),%r9d
  400cc5:	45 29 c1             	sub    %r8d,%r9d
  400cc8:	44 89 c9             	mov    %r9d,%ecx
  400ccb:	d3 ff                	sar    %cl,%edi
  400ccd:	81 e7 ff 00 00 00    	and    $0xff,%edi
  400cd3:	0f be 8d ae fd ff ff 	movsbl -0x252(%rbp),%ecx
  400cda:	d3 e0                	shl    %cl,%eax
  400cdc:	25 ff 00 00 00       	and    $0xff,%eax
  400ce1:	83 f0 ff             	xor    $0xffffffff,%eax
  400ce4:	21 c7                	and    %eax,%edi
  400ce6:	09 fe                	or     %edi,%esi
  400ce8:	81 fe f1 00 00 00    	cmp    $0xf1,%esi
  400cee:	0f 8e 82 44 00 00    	jle    405176 <main+0x4646>
  400cf4:	48 8d a4 24 68 ff ff 	lea    -0x98(%rsp),%rsp
  400cfb:	ff 
  400cfc:	48 89 14 24          	mov    %rdx,(%rsp)
  400d00:	48 89 4c 24 08       	mov    %rcx,0x8(%rsp)
  400d05:	48 89 44 24 10       	mov    %rax,0x10(%rsp)
  400d0a:	48 c7 c1 48 a1 00 00 	mov    $0xa148,%rcx
  400d11:	e8 12 45 00 00       	callq  405228 <__afl_maybe_log>
  400d16:	48 8b 44 24 10       	mov    0x10(%rsp),%rax
  400d1b:	48 8b 4c 24 08       	mov    0x8(%rsp),%rcx
  400d20:	48 8b 14 24          	mov    (%rsp),%rdx
  400d24:	48 8d a4 24 98 00 00 	lea    0x98(%rsp),%rsp
  400d2b:	00 
  400d2c:	8a 85 e0 fe ff ff    	mov    -0x120(%rbp),%al
  400d32:	88 85 af fd ff ff    	mov    %al,-0x251(%rbp)
  400d38:	c6 85 ae fd ff ff 01 	movb   $0x1,-0x252(%rbp)
  400d3f:	0f be 8d af fd ff ff 	movsbl -0x251(%rbp),%ecx
  400d46:	0f be 95 ae fd ff ff 	movsbl -0x252(%rbp),%edx
  400d4d:	89 8d 80 fd ff ff    	mov    %ecx,-0x280(%rbp)
  400d53:	89 d1                	mov    %edx,%ecx
  400d55:	8b 95 80 fd ff ff    	mov    -0x280(%rbp),%edx
  400d5b:	d3 fa                	sar    %cl,%edx
  400d5d:	81 e2 ff 00 00 00    	and    $0xff,%edx
  400d63:	83 fa 21             	cmp    $0x21,%edx
  400d66:	0f 8c ce 43 00 00    	jl     40513a <main+0x460a>
  400d6c:	48 8d a4 24 68 ff ff 	lea    -0x98(%rsp),%rsp
  400d73:	ff 
  400d74:	48 89 14 24          	mov    %rdx,(%rsp)
  400d78:	48 89 4c 24 08       	mov    %rcx,0x8(%rsp)
  400d7d:	48 89 44 24 10       	mov    %rax,0x10(%rsp)
  400d82:	48 c7 c1 ba 6f 00 00 	mov    $0x6fba,%rcx
  400d89:	e8 9a 44 00 00       	callq  405228 <__afl_maybe_log>
  400d8e:	48 8b 44 24 10       	mov    0x10(%rsp),%rax
  400d93:	48 8b 4c 24 08       	mov    0x8(%rsp),%rcx
  400d98:	48 8b 14 24          	mov    (%rsp),%rdx
  400d9c:	48 8d a4 24 98 00 00 	lea    0x98(%rsp),%rsp
  400da3:	00 
  400da4:	8a 85 c1 fe ff ff    	mov    -0x13f(%rbp),%al
  400daa:	88 85 af fd ff ff    	mov    %al,-0x251(%rbp)
  400db0:	c6 85 ae fd ff ff 01 	movb   $0x1,-0x252(%rbp)
  400db7:	0f be 8d af fd ff ff 	movsbl -0x251(%rbp),%ecx
  400dbe:	0f be 95 ae fd ff ff 	movsbl -0x252(%rbp),%edx
  400dc5:	89 8d 7c fd ff ff    	mov    %ecx,-0x284(%rbp)
  400dcb:	89 d1                	mov    %edx,%ecx
  400dcd:	8b 95 7c fd ff ff    	mov    -0x284(%rbp),%edx
  400dd3:	d3 e2                	shl    %cl,%edx
  400dd5:	81 e2 ff 00 00 00    	and    $0xff,%edx
  400ddb:	83 fa 29             	cmp    $0x29,%edx
  400dde:	0f 8e 1a 43 00 00    	jle    4050fe <main+0x45ce>
  400de4:	48 8d a4 24 68 ff ff 	lea    -0x98(%rsp),%rsp
  400deb:	ff 
  400dec:	48 89 14 24          	mov    %rdx,(%rsp)
  400df0:	48 89 4c 24 08       	mov    %rcx,0x8(%rsp)
  400df5:	48 89 44 24 10       	mov    %rax,0x10(%rsp)
  400dfa:	48 c7 c1 b3 64 00 00 	mov    $0x64b3,%rcx
  400e01:	e8 22 44 00 00       	callq  405228 <__afl_maybe_log>
  400e06:	48 8b 44 24 10       	mov    0x10(%rsp),%rax
  400e0b:	48 8b 4c 24 08       	mov    0x8(%rsp),%rcx
  400e10:	48 8b 14 24          	mov    (%rsp),%rdx
  400e14:	48 8d a4 24 98 00 00 	lea    0x98(%rsp),%rsp
  400e1b:	00 
  400e1c:	8a 85 d8 fe ff ff    	mov    -0x128(%rbp),%al
  400e22:	88 85 af fd ff ff    	mov    %al,-0x251(%rbp)
  400e28:	c6 85 ae fd ff ff 00 	movb   $0x0,-0x252(%rbp)
  400e2f:	0f be 8d af fd ff ff 	movsbl -0x251(%rbp),%ecx
  400e36:	83 f1 ff             	xor    $0xffffffff,%ecx
  400e39:	81 e1 ff 00 00 00    	and    $0xff,%ecx
  400e3f:	81 f9 cc 00 00 00    	cmp    $0xcc,%ecx
  400e45:	0f 8c 77 42 00 00    	jl     4050c2 <main+0x4592>
  400e4b:	90                   	nop
  400e4c:	48 8d a4 24 68 ff ff 	lea    -0x98(%rsp),%rsp
  400e53:	ff 
  400e54:	48 89 14 24          	mov    %rdx,(%rsp)
  400e58:	48 89 4c 24 08       	mov    %rcx,0x8(%rsp)
  400e5d:	48 89 44 24 10       	mov    %rax,0x10(%rsp)
  400e62:	48 c7 c1 b6 de 00 00 	mov    $0xdeb6,%rcx
  400e69:	e8 ba 43 00 00       	callq  405228 <__afl_maybe_log>
  400e6e:	48 8b 44 24 10       	mov    0x10(%rsp),%rax
  400e73:	48 8b 4c 24 08       	mov    0x8(%rsp),%rcx
  400e78:	48 8b 14 24          	mov    (%rsp),%rdx
  400e7c:	48 8d a4 24 98 00 00 	lea    0x98(%rsp),%rsp
  400e83:	00 
  400e84:	8a 85 11 ff ff ff    	mov    -0xef(%rbp),%al
  400e8a:	88 85 af fd ff ff    	mov    %al,-0x251(%rbp)
  400e90:	c6 85 ae fd ff ff 4f 	movb   $0x4f,-0x252(%rbp)
  400e97:	0f be 8d af fd ff ff 	movsbl -0x251(%rbp),%ecx
  400e9e:	0f be 95 ae fd ff ff 	movsbl -0x252(%rbp),%edx
  400ea5:	21 d1                	and    %edx,%ecx
  400ea7:	83 f9 49             	cmp    $0x49,%ecx
  400eaa:	0f 85 d6 41 00 00    	jne    405086 <main+0x4556>
  400eb0:	48 8d a4 24 68 ff ff 	lea    -0x98(%rsp),%rsp
  400eb7:	ff 
  400eb8:	48 89 14 24          	mov    %rdx,(%rsp)
  400ebc:	48 89 4c 24 08       	mov    %rcx,0x8(%rsp)
  400ec1:	48 89 44 24 10       	mov    %rax,0x10(%rsp)
  400ec6:	48 c7 c1 cb 61 00 00 	mov    $0x61cb,%rcx
  400ecd:	e8 56 43 00 00       	callq  405228 <__afl_maybe_log>
  400ed2:	48 8b 44 24 10       	mov    0x10(%rsp),%rax
  400ed7:	48 8b 4c 24 08       	mov    0x8(%rsp),%rcx
  400edc:	48 8b 14 24          	mov    (%rsp),%rdx
  400ee0:	48 8d a4 24 98 00 00 	lea    0x98(%rsp),%rsp
  400ee7:	00 
  400ee8:	8a 85 f4 fe ff ff    	mov    -0x10c(%rbp),%al
  400eee:	88 85 af fd ff ff    	mov    %al,-0x251(%rbp)
  400ef4:	c6 85 ae fd ff ff 01 	movb   $0x1,-0x252(%rbp)
  400efb:	0f be 8d af fd ff ff 	movsbl -0x251(%rbp),%ecx
  400f02:	0f be 95 ae fd ff ff 	movsbl -0x252(%rbp),%edx
  400f09:	89 8d 78 fd ff ff    	mov    %ecx,-0x288(%rbp)
  400f0f:	89 d1                	mov    %edx,%ecx
  400f11:	8b 95 78 fd ff ff    	mov    -0x288(%rbp),%edx
  400f17:	d3 fa                	sar    %cl,%edx
  400f19:	81 e2 ff 00 00 00    	and    $0xff,%edx
  400f1f:	83 fa 75             	cmp    $0x75,%edx
  400f22:	0f 84 22 41 00 00    	je     40504a <main+0x451a>
  400f28:	48 8d a4 24 68 ff ff 	lea    -0x98(%rsp),%rsp
  400f2f:	ff 
  400f30:	48 89 14 24          	mov    %rdx,(%rsp)
  400f34:	48 89 4c 24 08       	mov    %rcx,0x8(%rsp)
  400f39:	48 89 44 24 10       	mov    %rax,0x10(%rsp)
  400f3e:	48 c7 c1 a8 b7 00 00 	mov    $0xb7a8,%rcx
  400f45:	e8 de 42 00 00       	callq  405228 <__afl_maybe_log>
  400f4a:	48 8b 44 24 10       	mov    0x10(%rsp),%rax
  400f4f:	48 8b 4c 24 08       	mov    0x8(%rsp),%rcx
  400f54:	48 8b 14 24          	mov    (%rsp),%rdx
  400f58:	48 8d a4 24 98 00 00 	lea    0x98(%rsp),%rsp
  400f5f:	00 
  400f60:	8a 85 c6 fe ff ff    	mov    -0x13a(%rbp),%al
  400f66:	88 85 af fd ff ff    	mov    %al,-0x251(%rbp)
  400f6c:	c6 85 ae fd ff ff 26 	movb   $0x26,-0x252(%rbp)
  400f73:	0f be 8d af fd ff ff 	movsbl -0x251(%rbp),%ecx
  400f7a:	0f be 95 ae fd ff ff 	movsbl -0x252(%rbp),%edx
  400f81:	31 d1                	xor    %edx,%ecx
  400f83:	83 f9 39             	cmp    $0x39,%ecx
  400f86:	0f 8f 82 40 00 00    	jg     40500e <main+0x44de>
  400f8c:	48 8d a4 24 68 ff ff 	lea    -0x98(%rsp),%rsp
  400f93:	ff 
  400f94:	48 89 14 24          	mov    %rdx,(%rsp)
  400f98:	48 89 4c 24 08       	mov    %rcx,0x8(%rsp)
  400f9d:	48 89 44 24 10       	mov    %rax,0x10(%rsp)
  400fa2:	48 c7 c1 d2 e7 00 00 	mov    $0xe7d2,%rcx
  400fa9:	e8 7a 42 00 00       	callq  405228 <__afl_maybe_log>
  400fae:	48 8b 44 24 10       	mov    0x10(%rsp),%rax
  400fb3:	48 8b 4c 24 08       	mov    0x8(%rsp),%rcx
  400fb8:	48 8b 14 24          	mov    (%rsp),%rdx
  400fbc:	48 8d a4 24 98 00 00 	lea    0x98(%rsp),%rsp
  400fc3:	00 
  400fc4:	b8 ff 00 00 00       	mov    $0xff,%eax
  400fc9:	b9 08 00 00 00       	mov    $0x8,%ecx
  400fce:	8a 95 dc fe ff ff    	mov    -0x124(%rbp),%dl
  400fd4:	88 95 af fd ff ff    	mov    %dl,-0x251(%rbp)
  400fda:	c6 85 ae fd ff ff 02 	movb   $0x2,-0x252(%rbp)
  400fe1:	0f be b5 af fd ff ff 	movsbl -0x251(%rbp),%esi
  400fe8:	0f be bd ae fd ff ff 	movsbl -0x252(%rbp),%edi
  400fef:	89 8d 74 fd ff ff    	mov    %ecx,-0x28c(%rbp)
  400ff5:	89 f9                	mov    %edi,%ecx
  400ff7:	d3 e6                	shl    %cl,%esi
  400ff9:	81 e6 ff 00 00 00    	and    $0xff,%esi
  400fff:	0f be bd af fd ff ff 	movsbl -0x251(%rbp),%edi
  401006:	44 0f be 85 ae fd ff 	movsbl -0x252(%rbp),%r8d
  40100d:	ff 
  40100e:	44 8b 8d 74 fd ff ff 	mov    -0x28c(%rbp),%r9d
  401015:	45 29 c1             	sub    %r8d,%r9d
  401018:	44 89 c9             	mov    %r9d,%ecx
  40101b:	d3 ff                	sar    %cl,%edi
  40101d:	81 e7 ff 00 00 00    	and    $0xff,%edi
  401023:	0f be 8d ae fd ff ff 	movsbl -0x252(%rbp),%ecx
  40102a:	d3 e0                	shl    %cl,%eax
  40102c:	25 ff 00 00 00       	and    $0xff,%eax
  401031:	83 f0 ff             	xor    $0xffffffff,%eax
  401034:	21 c7                	and    %eax,%edi
  401036:	09 fe                	or     %edi,%esi
  401038:	81 fe e2 00 00 00    	cmp    $0xe2,%esi
  40103e:	0f 84 8e 3f 00 00    	je     404fd2 <main+0x44a2>
  401044:	48 8d a4 24 68 ff ff 	lea    -0x98(%rsp),%rsp
  40104b:	ff 
  40104c:	48 89 14 24          	mov    %rdx,(%rsp)
  401050:	48 89 4c 24 08       	mov    %rcx,0x8(%rsp)
  401055:	48 89 44 24 10       	mov    %rax,0x10(%rsp)
  40105a:	48 c7 c1 d9 a3 00 00 	mov    $0xa3d9,%rcx
  401061:	e8 c2 41 00 00       	callq  405228 <__afl_maybe_log>
  401066:	48 8b 44 24 10       	mov    0x10(%rsp),%rax
  40106b:	48 8b 4c 24 08       	mov    0x8(%rsp),%rcx
  401070:	48 8b 14 24          	mov    (%rsp),%rdx
  401074:	48 8d a4 24 98 00 00 	lea    0x98(%rsp),%rsp
  40107b:	00 
  40107c:	8a 85 ef fe ff ff    	mov    -0x111(%rbp),%al
  401082:	88 85 af fd ff ff    	mov    %al,-0x251(%rbp)
  401088:	c6 85 ae fd ff ff 0a 	movb   $0xa,-0x252(%rbp)
  40108f:	0f be 8d af fd ff ff 	movsbl -0x251(%rbp),%ecx
  401096:	0f be 95 ae fd ff ff 	movsbl -0x252(%rbp),%edx
  40109d:	31 d1                	xor    %edx,%ecx
  40109f:	81 f9 82 00 00 00    	cmp    $0x82,%ecx
  4010a5:	0f 8f eb 3e 00 00    	jg     404f96 <main+0x4466>
  4010ab:	90                   	nop
  4010ac:	48 8d a4 24 68 ff ff 	lea    -0x98(%rsp),%rsp
  4010b3:	ff 
  4010b4:	48 89 14 24          	mov    %rdx,(%rsp)
  4010b8:	48 89 4c 24 08       	mov    %rcx,0x8(%rsp)
  4010bd:	48 89 44 24 10       	mov    %rax,0x10(%rsp)
  4010c2:	48 c7 c1 ea 05 00 00 	mov    $0x5ea,%rcx
  4010c9:	e8 5a 41 00 00       	callq  405228 <__afl_maybe_log>
  4010ce:	48 8b 44 24 10       	mov    0x10(%rsp),%rax
  4010d3:	48 8b 4c 24 08       	mov    0x8(%rsp),%rcx
  4010d8:	48 8b 14 24          	mov    (%rsp),%rdx
  4010dc:	48 8d a4 24 98 00 00 	lea    0x98(%rsp),%rsp
  4010e3:	00 
  4010e4:	8a 85 e6 fe ff ff    	mov    -0x11a(%rbp),%al
  4010ea:	88 85 af fd ff ff    	mov    %al,-0x251(%rbp)
  4010f0:	c6 85 ae fd ff ff 00 	movb   $0x0,-0x252(%rbp)
  4010f7:	0f be 8d af fd ff ff 	movsbl -0x251(%rbp),%ecx
  4010fe:	83 f1 ff             	xor    $0xffffffff,%ecx
  401101:	81 e1 ff 00 00 00    	and    $0xff,%ecx
  401107:	83 f9 61             	cmp    $0x61,%ecx
  40110a:	0f 84 4a 3e 00 00    	je     404f5a <main+0x442a>
  401110:	48 8d a4 24 68 ff ff 	lea    -0x98(%rsp),%rsp
  401117:	ff 
  401118:	48 89 14 24          	mov    %rdx,(%rsp)
  40111c:	48 89 4c 24 08       	mov    %rcx,0x8(%rsp)
  401121:	48 89 44 24 10       	mov    %rax,0x10(%rsp)
  401126:	48 c7 c1 61 ca 00 00 	mov    $0xca61,%rcx
  40112d:	e8 f6 40 00 00       	callq  405228 <__afl_maybe_log>
  401132:	48 8b 44 24 10       	mov    0x10(%rsp),%rax
  401137:	48 8b 4c 24 08       	mov    0x8(%rsp),%rcx
  40113c:	48 8b 14 24          	mov    (%rsp),%rdx
  401140:	48 8d a4 24 98 00 00 	lea    0x98(%rsp),%rsp
  401147:	00 
  401148:	b8 ff 00 00 00       	mov    $0xff,%eax
  40114d:	b9 08 00 00 00       	mov    $0x8,%ecx
  401152:	8a 95 bb fe ff ff    	mov    -0x145(%rbp),%dl
  401158:	88 95 af fd ff ff    	mov    %dl,-0x251(%rbp)
  40115e:	c6 85 ae fd ff ff 04 	movb   $0x4,-0x252(%rbp)
  401165:	0f be b5 af fd ff ff 	movsbl -0x251(%rbp),%esi
  40116c:	0f be bd ae fd ff ff 	movsbl -0x252(%rbp),%edi
  401173:	89 8d 70 fd ff ff    	mov    %ecx,-0x290(%rbp)
  401179:	89 f9                	mov    %edi,%ecx
  40117b:	d3 e6                	shl    %cl,%esi
  40117d:	81 e6 ff 00 00 00    	and    $0xff,%esi
  401183:	0f be bd af fd ff ff 	movsbl -0x251(%rbp),%edi
  40118a:	44 0f be 85 ae fd ff 	movsbl -0x252(%rbp),%r8d
  401191:	ff 
  401192:	44 8b 8d 70 fd ff ff 	mov    -0x290(%rbp),%r9d
  401199:	45 29 c1             	sub    %r8d,%r9d
  40119c:	44 89 c9             	mov    %r9d,%ecx
  40119f:	d3 ff                	sar    %cl,%edi
  4011a1:	81 e7 ff 00 00 00    	and    $0xff,%edi
  4011a7:	0f be 8d ae fd ff ff 	movsbl -0x252(%rbp),%ecx
  4011ae:	d3 e0                	shl    %cl,%eax
  4011b0:	25 ff 00 00 00       	and    $0xff,%eax
  4011b5:	83 f0 ff             	xor    $0xffffffff,%eax
  4011b8:	21 c7                	and    %eax,%edi
  4011ba:	09 fe                	or     %edi,%esi
  4011bc:	83 fe 67             	cmp    $0x67,%esi
  4011bf:	0f 85 59 3d 00 00    	jne    404f1e <main+0x43ee>
  4011c5:	0f 1f 00             	nopl   (%rax)
  4011c8:	48 8d a4 24 68 ff ff 	lea    -0x98(%rsp),%rsp
  4011cf:	ff 
  4011d0:	48 89 14 24          	mov    %rdx,(%rsp)
  4011d4:	48 89 4c 24 08       	mov    %rcx,0x8(%rsp)
  4011d9:	48 89 44 24 10       	mov    %rax,0x10(%rsp)
  4011de:	48 c7 c1 99 30 00 00 	mov    $0x3099,%rcx
  4011e5:	e8 3e 40 00 00       	callq  405228 <__afl_maybe_log>
  4011ea:	48 8b 44 24 10       	mov    0x10(%rsp),%rax
  4011ef:	48 8b 4c 24 08       	mov    0x8(%rsp),%rcx
  4011f4:	48 8b 14 24          	mov    (%rsp),%rdx
  4011f8:	48 8d a4 24 98 00 00 	lea    0x98(%rsp),%rsp
  4011ff:	00 
  401200:	8a 85 c5 fe ff ff    	mov    -0x13b(%rbp),%al
  401206:	88 85 af fd ff ff    	mov    %al,-0x251(%rbp)
  40120c:	c6 85 ae fd ff ff 00 	movb   $0x0,-0x252(%rbp)
  401213:	0f be 8d af fd ff ff 	movsbl -0x251(%rbp),%ecx
  40121a:	83 f1 ff             	xor    $0xffffffff,%ecx
  40121d:	81 e1 ff 00 00 00    	and    $0xff,%ecx
  401223:	81 f9 9f 00 00 00    	cmp    $0x9f,%ecx
  401229:	0f 84 b3 3c 00 00    	je     404ee2 <main+0x43b2>
  40122f:	90                   	nop
  401230:	48 8d a4 24 68 ff ff 	lea    -0x98(%rsp),%rsp
  401237:	ff 
  401238:	48 89 14 24          	mov    %rdx,(%rsp)
  40123c:	48 89 4c 24 08       	mov    %rcx,0x8(%rsp)
  401241:	48 89 44 24 10       	mov    %rax,0x10(%rsp)
  401246:	48 c7 c1 53 67 00 00 	mov    $0x6753,%rcx
  40124d:	e8 d6 3f 00 00       	callq  405228 <__afl_maybe_log>
  401252:	48 8b 44 24 10       	mov    0x10(%rsp),%rax
  401257:	48 8b 4c 24 08       	mov    0x8(%rsp),%rcx
  40125c:	48 8b 14 24          	mov    (%rsp),%rdx
  401260:	48 8d a4 24 98 00 00 	lea    0x98(%rsp),%rsp
  401267:	00 
  401268:	8a 85 f9 fe ff ff    	mov    -0x107(%rbp),%al
  40126e:	88 85 af fd ff ff    	mov    %al,-0x251(%rbp)
  401274:	c6 85 ae fd ff ff 05 	movb   $0x5,-0x252(%rbp)
  40127b:	0f be 8d af fd ff ff 	movsbl -0x251(%rbp),%ecx
  401282:	0f be 95 ae fd ff ff 	movsbl -0x252(%rbp),%edx
  401289:	89 8d 6c fd ff ff    	mov    %ecx,-0x294(%rbp)
  40128f:	89 d1                	mov    %edx,%ecx
  401291:	8b 95 6c fd ff ff    	mov    -0x294(%rbp),%edx
  401297:	d3 e2                	shl    %cl,%edx
  401299:	81 e2 ff 00 00 00    	and    $0xff,%edx
  40129f:	83 fa 20             	cmp    $0x20,%edx
  4012a2:	0f 8e fe 3b 00 00    	jle    404ea6 <main+0x4376>
  4012a8:	48 8d a4 24 68 ff ff 	lea    -0x98(%rsp),%rsp
  4012af:	ff 
  4012b0:	48 89 14 24          	mov    %rdx,(%rsp)
  4012b4:	48 89 4c 24 08       	mov    %rcx,0x8(%rsp)
  4012b9:	48 89 44 24 10       	mov    %rax,0x10(%rsp)
  4012be:	48 c7 c1 de a3 00 00 	mov    $0xa3de,%rcx
  4012c5:	e8 5e 3f 00 00       	callq  405228 <__afl_maybe_log>
  4012ca:	48 8b 44 24 10       	mov    0x10(%rsp),%rax
  4012cf:	48 8b 4c 24 08       	mov    0x8(%rsp),%rcx
  4012d4:	48 8b 14 24          	mov    (%rsp),%rdx
  4012d8:	48 8d a4 24 98 00 00 	lea    0x98(%rsp),%rsp
  4012df:	00 
  4012e0:	8a 85 c7 fe ff ff    	mov    -0x139(%rbp),%al
  4012e6:	88 85 af fd ff ff    	mov    %al,-0x251(%rbp)
  4012ec:	c6 85 ae fd ff ff 19 	movb   $0x19,-0x252(%rbp)
  4012f3:	0f be 8d af fd ff ff 	movsbl -0x251(%rbp),%ecx
  4012fa:	0f be 95 ae fd ff ff 	movsbl -0x252(%rbp),%edx
  401301:	09 d1                	or     %edx,%ecx
  401303:	83 f9 5d             	cmp    $0x5d,%ecx
  401306:	0f 85 5e 3b 00 00    	jne    404e6a <main+0x433a>
  40130c:	48 8d a4 24 68 ff ff 	lea    -0x98(%rsp),%rsp
  401313:	ff 
  401314:	48 89 14 24          	mov    %rdx,(%rsp)
  401318:	48 89 4c 24 08       	mov    %rcx,0x8(%rsp)
  40131d:	48 89 44 24 10       	mov    %rax,0x10(%rsp)
  401322:	48 c7 c1 84 18 00 00 	mov    $0x1884,%rcx
  401329:	e8 fa 3e 00 00       	callq  405228 <__afl_maybe_log>
  40132e:	48 8b 44 24 10       	mov    0x10(%rsp),%rax
  401333:	48 8b 4c 24 08       	mov    0x8(%rsp),%rcx
  401338:	48 8b 14 24          	mov    (%rsp),%rdx
  40133c:	48 8d a4 24 98 00 00 	lea    0x98(%rsp),%rsp
  401343:	00 
  401344:	8a 85 e1 fe ff ff    	mov    -0x11f(%rbp),%al
  40134a:	88 85 af fd ff ff    	mov    %al,-0x251(%rbp)
  401350:	c6 85 ae fd ff ff 7b 	movb   $0x7b,-0x252(%rbp)
  401357:	0f be 8d af fd ff ff 	movsbl -0x251(%rbp),%ecx
  40135e:	0f be 95 ae fd ff ff 	movsbl -0x252(%rbp),%edx
  401365:	09 d1                	or     %edx,%ecx
  401367:	83 f9 51             	cmp    $0x51,%ecx
  40136a:	0f 8c be 3a 00 00    	jl     404e2e <main+0x42fe>
  401370:	48 8d a4 24 68 ff ff 	lea    -0x98(%rsp),%rsp
  401377:	ff 
  401378:	48 89 14 24          	mov    %rdx,(%rsp)
  40137c:	48 89 4c 24 08       	mov    %rcx,0x8(%rsp)
  401381:	48 89 44 24 10       	mov    %rax,0x10(%rsp)
  401386:	48 c7 c1 93 9e 00 00 	mov    $0x9e93,%rcx
  40138d:	e8 96 3e 00 00       	callq  405228 <__afl_maybe_log>
  401392:	48 8b 44 24 10       	mov    0x10(%rsp),%rax
  401397:	48 8b 4c 24 08       	mov    0x8(%rsp),%rcx
  40139c:	48 8b 14 24          	mov    (%rsp),%rdx
  4013a0:	48 8d a4 24 98 00 00 	lea    0x98(%rsp),%rsp
  4013a7:	00 
  4013a8:	8a 85 00 ff ff ff    	mov    -0x100(%rbp),%al
  4013ae:	88 85 af fd ff ff    	mov    %al,-0x251(%rbp)
  4013b4:	c6 85 ae fd ff ff 00 	movb   $0x0,-0x252(%rbp)
  4013bb:	0f be 8d af fd ff ff 	movsbl -0x251(%rbp),%ecx
  4013c2:	83 f1 ff             	xor    $0xffffffff,%ecx
  4013c5:	81 e1 ff 00 00 00    	and    $0xff,%ecx
  4013cb:	83 f9 2c             	cmp    $0x2c,%ecx
  4013ce:	0f 84 1e 3a 00 00    	je     404df2 <main+0x42c2>
  4013d4:	48 8d a4 24 68 ff ff 	lea    -0x98(%rsp),%rsp
  4013db:	ff 
  4013dc:	48 89 14 24          	mov    %rdx,(%rsp)
  4013e0:	48 89 4c 24 08       	mov    %rcx,0x8(%rsp)
  4013e5:	48 89 44 24 10       	mov    %rax,0x10(%rsp)
  4013ea:	48 c7 c1 94 34 00 00 	mov    $0x3494,%rcx
  4013f1:	e8 32 3e 00 00       	callq  405228 <__afl_maybe_log>
  4013f6:	48 8b 44 24 10       	mov    0x10(%rsp),%rax
  4013fb:	48 8b 4c 24 08       	mov    0x8(%rsp),%rcx
  401400:	48 8b 14 24          	mov    (%rsp),%rdx
  401404:	48 8d a4 24 98 00 00 	lea    0x98(%rsp),%rsp
  40140b:	00 
  40140c:	8a 85 f3 fe ff ff    	mov    -0x10d(%rbp),%al
  401412:	88 85 af fd ff ff    	mov    %al,-0x251(%rbp)
  401418:	c6 85 ae fd ff ff 59 	movb   $0x59,-0x252(%rbp)
  40141f:	0f be 8d af fd ff ff 	movsbl -0x251(%rbp),%ecx
  401426:	0f be 95 ae fd ff ff 	movsbl -0x252(%rbp),%edx
  40142d:	09 d1                	or     %edx,%ecx
  40142f:	83 f9 54             	cmp    $0x54,%ecx
  401432:	0f 8c 7e 39 00 00    	jl     404db6 <main+0x4286>
  401438:	48 8d a4 24 68 ff ff 	lea    -0x98(%rsp),%rsp
  40143f:	ff 
  401440:	48 89 14 24          	mov    %rdx,(%rsp)
  401444:	48 89 4c 24 08       	mov    %rcx,0x8(%rsp)
  401449:	48 89 44 24 10       	mov    %rax,0x10(%rsp)
  40144e:	48 c7 c1 80 9e 00 00 	mov    $0x9e80,%rcx
  401455:	e8 ce 3d 00 00       	callq  405228 <__afl_maybe_log>
  40145a:	48 8b 44 24 10       	mov    0x10(%rsp),%rax
  40145f:	48 8b 4c 24 08       	mov    0x8(%rsp),%rcx
  401464:	48 8b 14 24          	mov    (%rsp),%rdx
  401468:	48 8d a4 24 98 00 00 	lea    0x98(%rsp),%rsp
  40146f:	00 
  401470:	8a 85 07 ff ff ff    	mov    -0xf9(%rbp),%al
  401476:	88 85 af fd ff ff    	mov    %al,-0x251(%rbp)
  40147c:	c6 85 ae fd ff ff 00 	movb   $0x0,-0x252(%rbp)
  401483:	0f be 8d af fd ff ff 	movsbl -0x251(%rbp),%ecx
  40148a:	83 f1 ff             	xor    $0xffffffff,%ecx
  40148d:	81 e1 ff 00 00 00    	and    $0xff,%ecx
  401493:	81 f9 ae 00 00 00    	cmp    $0xae,%ecx
  401499:	0f 85 db 38 00 00    	jne    404d7a <main+0x424a>
  40149f:	90                   	nop
  4014a0:	48 8d a4 24 68 ff ff 	lea    -0x98(%rsp),%rsp
  4014a7:	ff 
  4014a8:	48 89 14 24          	mov    %rdx,(%rsp)
  4014ac:	48 89 4c 24 08       	mov    %rcx,0x8(%rsp)
  4014b1:	48 89 44 24 10       	mov    %rax,0x10(%rsp)
  4014b6:	48 c7 c1 3a 71 00 00 	mov    $0x713a,%rcx
  4014bd:	e8 66 3d 00 00       	callq  405228 <__afl_maybe_log>
  4014c2:	48 8b 44 24 10       	mov    0x10(%rsp),%rax
  4014c7:	48 8b 4c 24 08       	mov    0x8(%rsp),%rcx
  4014cc:	48 8b 14 24          	mov    (%rsp),%rdx
  4014d0:	48 8d a4 24 98 00 00 	lea    0x98(%rsp),%rsp
  4014d7:	00 
  4014d8:	8a 85 b7 fe ff ff    	mov    -0x149(%rbp),%al
  4014de:	88 85 af fd ff ff    	mov    %al,-0x251(%rbp)
  4014e4:	c6 85 ae fd ff ff 5e 	movb   $0x5e,-0x252(%rbp)
  4014eb:	0f be 8d af fd ff ff 	movsbl -0x251(%rbp),%ecx
  4014f2:	0f be 95 ae fd ff ff 	movsbl -0x252(%rbp),%edx
  4014f9:	21 d1                	and    %edx,%ecx
  4014fb:	83 f9 39             	cmp    $0x39,%ecx
  4014fe:	0f 8c 3a 38 00 00    	jl     404d3e <main+0x420e>
  401504:	48 8d a4 24 68 ff ff 	lea    -0x98(%rsp),%rsp
  40150b:	ff 
  40150c:	48 89 14 24          	mov    %rdx,(%rsp)
  401510:	48 89 4c 24 08       	mov    %rcx,0x8(%rsp)
  401515:	48 89 44 24 10       	mov    %rax,0x10(%rsp)
  40151a:	48 c7 c1 a5 d8 00 00 	mov    $0xd8a5,%rcx
  401521:	e8 02 3d 00 00       	callq  405228 <__afl_maybe_log>
  401526:	48 8b 44 24 10       	mov    0x10(%rsp),%rax
  40152b:	48 8b 4c 24 08       	mov    0x8(%rsp),%rcx
  401530:	48 8b 14 24          	mov    (%rsp),%rdx
  401534:	48 8d a4 24 98 00 00 	lea    0x98(%rsp),%rsp
  40153b:	00 
  40153c:	8a 85 cb fe ff ff    	mov    -0x135(%rbp),%al
  401542:	88 85 af fd ff ff    	mov    %al,-0x251(%rbp)
  401548:	c6 85 ae fd ff ff 02 	movb   $0x2,-0x252(%rbp)
  40154f:	0f be 8d af fd ff ff 	movsbl -0x251(%rbp),%ecx
  401556:	0f be 95 ae fd ff ff 	movsbl -0x252(%rbp),%edx
  40155d:	89 8d 68 fd ff ff    	mov    %ecx,-0x298(%rbp)
  401563:	89 d1                	mov    %edx,%ecx
  401565:	8b 95 68 fd ff ff    	mov    -0x298(%rbp),%edx
  40156b:	d3 fa                	sar    %cl,%edx
  40156d:	81 e2 ff 00 00 00    	and    $0xff,%edx
  401573:	83 fa 11             	cmp    $0x11,%edx
  401576:	0f 8e 86 37 00 00    	jle    404d02 <main+0x41d2>
  40157c:	48 8d a4 24 68 ff ff 	lea    -0x98(%rsp),%rsp
  401583:	ff 
  401584:	48 89 14 24          	mov    %rdx,(%rsp)
  401588:	48 89 4c 24 08       	mov    %rcx,0x8(%rsp)
  40158d:	48 89 44 24 10       	mov    %rax,0x10(%rsp)
  401592:	48 c7 c1 d7 c2 00 00 	mov    $0xc2d7,%rcx
  401599:	e8 8a 3c 00 00       	callq  405228 <__afl_maybe_log>
  40159e:	48 8b 44 24 10       	mov    0x10(%rsp),%rax
  4015a3:	48 8b 4c 24 08       	mov    0x8(%rsp),%rcx
  4015a8:	48 8b 14 24          	mov    (%rsp),%rdx
  4015ac:	48 8d a4 24 98 00 00 	lea    0x98(%rsp),%rsp
  4015b3:	00 
  4015b4:	8a 85 05 ff ff ff    	mov    -0xfb(%rbp),%al
  4015ba:	88 85 af fd ff ff    	mov    %al,-0x251(%rbp)
  4015c0:	c6 85 ae fd ff ff 25 	movb   $0x25,-0x252(%rbp)
  4015c7:	0f be 8d af fd ff ff 	movsbl -0x251(%rbp),%ecx
  4015ce:	0f be 95 ae fd ff ff 	movsbl -0x252(%rbp),%edx
  4015d5:	31 d1                	xor    %edx,%ecx
  4015d7:	83 f9 4e             	cmp    $0x4e,%ecx
  4015da:	0f 85 e6 36 00 00    	jne    404cc6 <main+0x4196>
  4015e0:	48 8d a4 24 68 ff ff 	lea    -0x98(%rsp),%rsp
  4015e7:	ff 
  4015e8:	48 89 14 24          	mov    %rdx,(%rsp)
  4015ec:	48 89 4c 24 08       	mov    %rcx,0x8(%rsp)
  4015f1:	48 89 44 24 10       	mov    %rax,0x10(%rsp)
  4015f6:	48 c7 c1 e8 40 00 00 	mov    $0x40e8,%rcx
  4015fd:	e8 26 3c 00 00       	callq  405228 <__afl_maybe_log>
  401602:	48 8b 44 24 10       	mov    0x10(%rsp),%rax
  401607:	48 8b 4c 24 08       	mov    0x8(%rsp),%rcx
  40160c:	48 8b 14 24          	mov    (%rsp),%rdx
  401610:	48 8d a4 24 98 00 00 	lea    0x98(%rsp),%rsp
  401617:	00 
  401618:	b8 ff 00 00 00       	mov    $0xff,%eax
  40161d:	b9 08 00 00 00       	mov    $0x8,%ecx
  401622:	8a 95 e4 fe ff ff    	mov    -0x11c(%rbp),%dl
  401628:	88 95 af fd ff ff    	mov    %dl,-0x251(%rbp)
  40162e:	c6 85 ae fd ff ff 03 	movb   $0x3,-0x252(%rbp)
  401635:	0f be b5 af fd ff ff 	movsbl -0x251(%rbp),%esi
  40163c:	0f be bd ae fd ff ff 	movsbl -0x252(%rbp),%edi
  401643:	89 8d 64 fd ff ff    	mov    %ecx,-0x29c(%rbp)
  401649:	89 f9                	mov    %edi,%ecx
  40164b:	d3 e6                	shl    %cl,%esi
  40164d:	81 e6 ff 00 00 00    	and    $0xff,%esi
  401653:	0f be bd af fd ff ff 	movsbl -0x251(%rbp),%edi
  40165a:	44 0f be 85 ae fd ff 	movsbl -0x252(%rbp),%r8d
  401661:	ff 
  401662:	44 8b 8d 64 fd ff ff 	mov    -0x29c(%rbp),%r9d
  401669:	45 29 c1             	sub    %r8d,%r9d
  40166c:	44 89 c9             	mov    %r9d,%ecx
  40166f:	d3 ff                	sar    %cl,%edi
  401671:	81 e7 ff 00 00 00    	and    $0xff,%edi
  401677:	0f be 8d ae fd ff ff 	movsbl -0x252(%rbp),%ecx
  40167e:	d3 e0                	shl    %cl,%eax
  401680:	25 ff 00 00 00       	and    $0xff,%eax
  401685:	83 f0 ff             	xor    $0xffffffff,%eax
  401688:	21 c7                	and    %eax,%edi
  40168a:	09 fe                	or     %edi,%esi
  40168c:	81 fe e9 00 00 00    	cmp    $0xe9,%esi
  401692:	0f 8e f2 35 00 00    	jle    404c8a <main+0x415a>
  401698:	48 8d a4 24 68 ff ff 	lea    -0x98(%rsp),%rsp
  40169f:	ff 
  4016a0:	48 89 14 24          	mov    %rdx,(%rsp)
  4016a4:	48 89 4c 24 08       	mov    %rcx,0x8(%rsp)
  4016a9:	48 89 44 24 10       	mov    %rax,0x10(%rsp)
  4016ae:	48 c7 c1 6d c2 00 00 	mov    $0xc26d,%rcx
  4016b5:	e8 6e 3b 00 00       	callq  405228 <__afl_maybe_log>
  4016ba:	48 8b 44 24 10       	mov    0x10(%rsp),%rax
  4016bf:	48 8b 4c 24 08       	mov    0x8(%rsp),%rcx
  4016c4:	48 8b 14 24          	mov    (%rsp),%rdx
  4016c8:	48 8d a4 24 98 00 00 	lea    0x98(%rsp),%rsp
  4016cf:	00 
  4016d0:	8a 85 0c ff ff ff    	mov    -0xf4(%rbp),%al
  4016d6:	88 85 af fd ff ff    	mov    %al,-0x251(%rbp)
  4016dc:	c6 85 ae fd ff ff 7d 	movb   $0x7d,-0x252(%rbp)
  4016e3:	0f be 8d af fd ff ff 	movsbl -0x251(%rbp),%ecx
  4016ea:	0f be 95 ae fd ff ff 	movsbl -0x252(%rbp),%edx
  4016f1:	31 d1                	xor    %edx,%ecx
  4016f3:	83 f9 32             	cmp    $0x32,%ecx
  4016f6:	0f 8c 52 35 00 00    	jl     404c4e <main+0x411e>
  4016fc:	48 8d a4 24 68 ff ff 	lea    -0x98(%rsp),%rsp
  401703:	ff 
  401704:	48 89 14 24          	mov    %rdx,(%rsp)
  401708:	48 89 4c 24 08       	mov    %rcx,0x8(%rsp)
  40170d:	48 89 44 24 10       	mov    %rax,0x10(%rsp)
  401712:	48 c7 c1 ea a4 00 00 	mov    $0xa4ea,%rcx
  401719:	e8 0a 3b 00 00       	callq  405228 <__afl_maybe_log>
  40171e:	48 8b 44 24 10       	mov    0x10(%rsp),%rax
  401723:	48 8b 4c 24 08       	mov    0x8(%rsp),%rcx
  401728:	48 8b 14 24          	mov    (%rsp),%rdx
  40172c:	48 8d a4 24 98 00 00 	lea    0x98(%rsp),%rsp
  401733:	00 
  401734:	8a 85 e8 fe ff ff    	mov    -0x118(%rbp),%al
  40173a:	88 85 af fd ff ff    	mov    %al,-0x251(%rbp)
  401740:	c6 85 ae fd ff ff 00 	movb   $0x0,-0x252(%rbp)
  401747:	0f be 8d af fd ff ff 	movsbl -0x251(%rbp),%ecx
  40174e:	83 f1 ff             	xor    $0xffffffff,%ecx
  401751:	81 e1 ff 00 00 00    	and    $0xff,%ecx
  401757:	81 f9 a8 00 00 00    	cmp    $0xa8,%ecx
  40175d:	0f 85 af 34 00 00    	jne    404c12 <main+0x40e2>
  401763:	90                   	nop
  401764:	48 8d a4 24 68 ff ff 	lea    -0x98(%rsp),%rsp
  40176b:	ff 
  40176c:	48 89 14 24          	mov    %rdx,(%rsp)
  401770:	48 89 4c 24 08       	mov    %rcx,0x8(%rsp)
  401775:	48 89 44 24 10       	mov    %rax,0x10(%rsp)
  40177a:	48 c7 c1 98 4b 00 00 	mov    $0x4b98,%rcx
  401781:	e8 a2 3a 00 00       	callq  405228 <__afl_maybe_log>
  401786:	48 8b 44 24 10       	mov    0x10(%rsp),%rax
  40178b:	48 8b 4c 24 08       	mov    0x8(%rsp),%rcx
  401790:	48 8b 14 24          	mov    (%rsp),%rdx
  401794:	48 8d a4 24 98 00 00 	lea    0x98(%rsp),%rsp
  40179b:	00 
  40179c:	8a 85 f1 fe ff ff    	mov    -0x10f(%rbp),%al
  4017a2:	88 85 af fd ff ff    	mov    %al,-0x251(%rbp)
  4017a8:	c6 85 ae fd ff ff 79 	movb   $0x79,-0x252(%rbp)
  4017af:	0f be 8d af fd ff ff 	movsbl -0x251(%rbp),%ecx
  4017b6:	0f be 95 ae fd ff ff 	movsbl -0x252(%rbp),%edx
  4017bd:	21 d1                	and    %edx,%ecx
  4017bf:	83 f9 71             	cmp    $0x71,%ecx
  4017c2:	0f 85 0e 34 00 00    	jne    404bd6 <main+0x40a6>
  4017c8:	48 8d a4 24 68 ff ff 	lea    -0x98(%rsp),%rsp
  4017cf:	ff 
  4017d0:	48 89 14 24          	mov    %rdx,(%rsp)
  4017d4:	48 89 4c 24 08       	mov    %rcx,0x8(%rsp)
  4017d9:	48 89 44 24 10       	mov    %rax,0x10(%rsp)
  4017de:	48 c7 c1 25 cb 00 00 	mov    $0xcb25,%rcx
  4017e5:	e8 3e 3a 00 00       	callq  405228 <__afl_maybe_log>
  4017ea:	48 8b 44 24 10       	mov    0x10(%rsp),%rax
  4017ef:	48 8b 4c 24 08       	mov    0x8(%rsp),%rcx
  4017f4:	48 8b 14 24          	mov    (%rsp),%rdx
  4017f8:	48 8d a4 24 98 00 00 	lea    0x98(%rsp),%rsp
  4017ff:	00 
  401800:	8a 85 e3 fe ff ff    	mov    -0x11d(%rbp),%al
  401806:	88 85 af fd ff ff    	mov    %al,-0x251(%rbp)
  40180c:	c6 85 ae fd ff ff 03 	movb   $0x3,-0x252(%rbp)
  401813:	0f be 8d af fd ff ff 	movsbl -0x251(%rbp),%ecx
  40181a:	0f be 95 ae fd ff ff 	movsbl -0x252(%rbp),%edx
  401821:	09 d1                	or     %edx,%ecx
  401823:	83 f9 50             	cmp    $0x50,%ecx
  401826:	0f 84 6e 33 00 00    	je     404b9a <main+0x406a>
  40182c:	48 8d a4 24 68 ff ff 	lea    -0x98(%rsp),%rsp
  401833:	ff 
  401834:	48 89 14 24          	mov    %rdx,(%rsp)
  401838:	48 89 4c 24 08       	mov    %rcx,0x8(%rsp)
  40183d:	48 89 44 24 10       	mov    %rax,0x10(%rsp)
  401842:	48 c7 c1 e9 84 00 00 	mov    $0x84e9,%rcx
  401849:	e8 da 39 00 00       	callq  405228 <__afl_maybe_log>
  40184e:	48 8b 44 24 10       	mov    0x10(%rsp),%rax
  401853:	48 8b 4c 24 08       	mov    0x8(%rsp),%rcx
  401858:	48 8b 14 24          	mov    (%rsp),%rdx
  40185c:	48 8d a4 24 98 00 00 	lea    0x98(%rsp),%rsp
  401863:	00 
  401864:	8a 85 d2 fe ff ff    	mov    -0x12e(%rbp),%al
  40186a:	88 85 af fd ff ff    	mov    %al,-0x251(%rbp)
  401870:	c6 85 ae fd ff ff 02 	movb   $0x2,-0x252(%rbp)
  401877:	0f be 8d af fd ff ff 	movsbl -0x251(%rbp),%ecx
  40187e:	0f be 95 ae fd ff ff 	movsbl -0x252(%rbp),%edx
  401885:	89 8d 60 fd ff ff    	mov    %ecx,-0x2a0(%rbp)
  40188b:	89 d1                	mov    %edx,%ecx
  40188d:	8b 95 60 fd ff ff    	mov    -0x2a0(%rbp),%edx
  401893:	d3 e2                	shl    %cl,%edx
  401895:	81 e2 ff 00 00 00    	and    $0xff,%edx
  40189b:	83 fa 35             	cmp    $0x35,%edx
  40189e:	0f 84 ba 32 00 00    	je     404b5e <main+0x402e>
  4018a4:	48 8d a4 24 68 ff ff 	lea    -0x98(%rsp),%rsp
  4018ab:	ff 
  4018ac:	48 89 14 24          	mov    %rdx,(%rsp)
  4018b0:	48 89 4c 24 08       	mov    %rcx,0x8(%rsp)
  4018b5:	48 89 44 24 10       	mov    %rax,0x10(%rsp)
  4018ba:	48 c7 c1 20 55 00 00 	mov    $0x5520,%rcx
  4018c1:	e8 62 39 00 00       	callq  405228 <__afl_maybe_log>
  4018c6:	48 8b 44 24 10       	mov    0x10(%rsp),%rax
  4018cb:	48 8b 4c 24 08       	mov    0x8(%rsp),%rcx
  4018d0:	48 8b 14 24          	mov    (%rsp),%rdx
  4018d4:	48 8d a4 24 98 00 00 	lea    0x98(%rsp),%rsp
  4018db:	00 
  4018dc:	b8 08 00 00 00       	mov    $0x8,%eax
  4018e1:	8a 8d c8 fe ff ff    	mov    -0x138(%rbp),%cl
  4018e7:	88 8d af fd ff ff    	mov    %cl,-0x251(%rbp)
  4018ed:	c6 85 ae fd ff ff 02 	movb   $0x2,-0x252(%rbp)
  4018f4:	0f be 95 af fd ff ff 	movsbl -0x251(%rbp),%edx
  4018fb:	0f be 8d ae fd ff ff 	movsbl -0x252(%rbp),%ecx
  401902:	d3 fa                	sar    %cl,%edx
  401904:	81 e2 ff 00 00 00    	and    $0xff,%edx
  40190a:	0f be b5 af fd ff ff 	movsbl -0x251(%rbp),%esi
  401911:	0f be bd ae fd ff ff 	movsbl -0x252(%rbp),%edi
  401918:	29 f8                	sub    %edi,%eax
  40191a:	89 c1                	mov    %eax,%ecx
  40191c:	d3 e6                	shl    %cl,%esi
  40191e:	81 e6 ff 00 00 00    	and    $0xff,%esi
  401924:	09 f2                	or     %esi,%edx
  401926:	81 fa fb 00 00 00    	cmp    $0xfb,%edx
  40192c:	0f 8d f0 31 00 00    	jge    404b22 <main+0x3ff2>
  401932:	66 90                	xchg   %ax,%ax
  401934:	48 8d a4 24 68 ff ff 	lea    -0x98(%rsp),%rsp
  40193b:	ff 
  40193c:	48 89 14 24          	mov    %rdx,(%rsp)
  401940:	48 89 4c 24 08       	mov    %rcx,0x8(%rsp)
  401945:	48 89 44 24 10       	mov    %rax,0x10(%rsp)
  40194a:	48 c7 c1 e8 dc 00 00 	mov    $0xdce8,%rcx
  401951:	e8 d2 38 00 00       	callq  405228 <__afl_maybe_log>
  401956:	48 8b 44 24 10       	mov    0x10(%rsp),%rax
  40195b:	48 8b 4c 24 08       	mov    0x8(%rsp),%rcx
  401960:	48 8b 14 24          	mov    (%rsp),%rdx
  401964:	48 8d a4 24 98 00 00 	lea    0x98(%rsp),%rsp
  40196b:	00 
  40196c:	8a 85 e5 fe ff ff    	mov    -0x11b(%rbp),%al
  401972:	88 85 af fd ff ff    	mov    %al,-0x251(%rbp)
  401978:	c6 85 ae fd ff ff 00 	movb   $0x0,-0x252(%rbp)
  40197f:	0f be 8d af fd ff ff 	movsbl -0x251(%rbp),%ecx
  401986:	83 f1 ff             	xor    $0xffffffff,%ecx
  401989:	81 e1 ff 00 00 00    	and    $0xff,%ecx
  40198f:	81 f9 bf 00 00 00    	cmp    $0xbf,%ecx
  401995:	0f 85 4b 31 00 00    	jne    404ae6 <main+0x3fb6>
  40199b:	90                   	nop
  40199c:	48 8d a4 24 68 ff ff 	lea    -0x98(%rsp),%rsp
  4019a3:	ff 
  4019a4:	48 89 14 24          	mov    %rdx,(%rsp)
  4019a8:	48 89 4c 24 08       	mov    %rcx,0x8(%rsp)
  4019ad:	48 89 44 24 10       	mov    %rax,0x10(%rsp)
  4019b2:	48 c7 c1 d5 36 00 00 	mov    $0x36d5,%rcx
  4019b9:	e8 6a 38 00 00       	callq  405228 <__afl_maybe_log>
  4019be:	48 8b 44 24 10       	mov    0x10(%rsp),%rax
  4019c3:	48 8b 4c 24 08       	mov    0x8(%rsp),%rcx
  4019c8:	48 8b 14 24          	mov    (%rsp),%rdx
  4019cc:	48 8d a4 24 98 00 00 	lea    0x98(%rsp),%rsp
  4019d3:	00 
  4019d4:	8a 85 e9 fe ff ff    	mov    -0x117(%rbp),%al
  4019da:	88 85 af fd ff ff    	mov    %al,-0x251(%rbp)
  4019e0:	c6 85 ae fd ff ff 67 	movb   $0x67,-0x252(%rbp)
  4019e7:	0f be 8d af fd ff ff 	movsbl -0x251(%rbp),%ecx
  4019ee:	0f be 95 ae fd ff ff 	movsbl -0x252(%rbp),%edx
  4019f5:	31 d1                	xor    %edx,%ecx
  4019f7:	83 f9 27             	cmp    $0x27,%ecx
  4019fa:	0f 8f aa 30 00 00    	jg     404aaa <main+0x3f7a>
  401a00:	48 8d a4 24 68 ff ff 	lea    -0x98(%rsp),%rsp
  401a07:	ff 
  401a08:	48 89 14 24          	mov    %rdx,(%rsp)
  401a0c:	48 89 4c 24 08       	mov    %rcx,0x8(%rsp)
  401a11:	48 89 44 24 10       	mov    %rax,0x10(%rsp)
  401a16:	48 c7 c1 c6 69 00 00 	mov    $0x69c6,%rcx
  401a1d:	e8 06 38 00 00       	callq  405228 <__afl_maybe_log>
  401a22:	48 8b 44 24 10       	mov    0x10(%rsp),%rax
  401a27:	48 8b 4c 24 08       	mov    0x8(%rsp),%rcx
  401a2c:	48 8b 14 24          	mov    (%rsp),%rdx
  401a30:	48 8d a4 24 98 00 00 	lea    0x98(%rsp),%rsp
  401a37:	00 
  401a38:	8a 85 ca fe ff ff    	mov    -0x136(%rbp),%al
  401a3e:	88 85 af fd ff ff    	mov    %al,-0x251(%rbp)
  401a44:	c6 85 ae fd ff ff 78 	movb   $0x78,-0x252(%rbp)
  401a4b:	0f be 8d af fd ff ff 	movsbl -0x251(%rbp),%ecx
  401a52:	0f be 95 ae fd ff ff 	movsbl -0x252(%rbp),%edx
  401a59:	31 d1                	xor    %edx,%ecx
  401a5b:	83 f9 3a             	cmp    $0x3a,%ecx
  401a5e:	0f 8e 0a 30 00 00    	jle    404a6e <main+0x3f3e>
  401a64:	48 8d a4 24 68 ff ff 	lea    -0x98(%rsp),%rsp
  401a6b:	ff 
  401a6c:	48 89 14 24          	mov    %rdx,(%rsp)
  401a70:	48 89 4c 24 08       	mov    %rcx,0x8(%rsp)
  401a75:	48 89 44 24 10       	mov    %rax,0x10(%rsp)
  401a7a:	48 c7 c1 62 88 00 00 	mov    $0x8862,%rcx
  401a81:	e8 a2 37 00 00       	callq  405228 <__afl_maybe_log>
  401a86:	48 8b 44 24 10       	mov    0x10(%rsp),%rax
  401a8b:	48 8b 4c 24 08       	mov    0x8(%rsp),%rcx
  401a90:	48 8b 14 24          	mov    (%rsp),%rdx
  401a94:	48 8d a4 24 98 00 00 	lea    0x98(%rsp),%rsp
  401a9b:	00 
  401a9c:	8a 85 0a ff ff ff    	mov    -0xf6(%rbp),%al
  401aa2:	88 85 af fd ff ff    	mov    %al,-0x251(%rbp)
  401aa8:	c6 85 ae fd ff ff 4d 	movb   $0x4d,-0x252(%rbp)
  401aaf:	0f be 8d af fd ff ff 	movsbl -0x251(%rbp),%ecx
  401ab6:	0f be 95 ae fd ff ff 	movsbl -0x252(%rbp),%edx
  401abd:	21 d1                	and    %edx,%ecx
  401abf:	83 f9 03             	cmp    $0x3,%ecx
  401ac2:	0f 8e 6a 2f 00 00    	jle    404a32 <main+0x3f02>
  401ac8:	48 8d a4 24 68 ff ff 	lea    -0x98(%rsp),%rsp
  401acf:	ff 
  401ad0:	48 89 14 24          	mov    %rdx,(%rsp)
  401ad4:	48 89 4c 24 08       	mov    %rcx,0x8(%rsp)
  401ad9:	48 89 44 24 10       	mov    %rax,0x10(%rsp)
  401ade:	48 c7 c1 43 15 00 00 	mov    $0x1543,%rcx
  401ae5:	e8 3e 37 00 00       	callq  405228 <__afl_maybe_log>
  401aea:	48 8b 44 24 10       	mov    0x10(%rsp),%rax
  401aef:	48 8b 4c 24 08       	mov    0x8(%rsp),%rcx
  401af4:	48 8b 14 24          	mov    (%rsp),%rdx
  401af8:	48 8d a4 24 98 00 00 	lea    0x98(%rsp),%rsp
  401aff:	00 
  401b00:	b8 08 00 00 00       	mov    $0x8,%eax
  401b05:	8a 8d ed fe ff ff    	mov    -0x113(%rbp),%cl
  401b0b:	88 8d af fd ff ff    	mov    %cl,-0x251(%rbp)
  401b11:	c6 85 ae fd ff ff 05 	movb   $0x5,-0x252(%rbp)
  401b18:	0f be 95 af fd ff ff 	movsbl -0x251(%rbp),%edx
  401b1f:	0f be 8d ae fd ff ff 	movsbl -0x252(%rbp),%ecx
  401b26:	d3 fa                	sar    %cl,%edx
  401b28:	81 e2 ff 00 00 00    	and    $0xff,%edx
  401b2e:	0f be b5 af fd ff ff 	movsbl -0x251(%rbp),%esi
  401b35:	0f be bd ae fd ff ff 	movsbl -0x252(%rbp),%edi
  401b3c:	29 f8                	sub    %edi,%eax
  401b3e:	89 c1                	mov    %eax,%ecx
  401b40:	d3 e6                	shl    %cl,%esi
  401b42:	81 e6 ff 00 00 00    	and    $0xff,%esi
  401b48:	09 f2                	or     %esi,%edx
  401b4a:	83 fa 04             	cmp    $0x4,%edx
  401b4d:	0f 8c a3 2e 00 00    	jl     4049f6 <main+0x3ec6>
  401b53:	90                   	nop
  401b54:	48 8d a4 24 68 ff ff 	lea    -0x98(%rsp),%rsp
  401b5b:	ff 
  401b5c:	48 89 14 24          	mov    %rdx,(%rsp)
  401b60:	48 89 4c 24 08       	mov    %rcx,0x8(%rsp)
  401b65:	48 89 44 24 10       	mov    %rax,0x10(%rsp)
  401b6a:	48 c7 c1 a8 42 00 00 	mov    $0x42a8,%rcx
  401b71:	e8 b2 36 00 00       	callq  405228 <__afl_maybe_log>
  401b76:	48 8b 44 24 10       	mov    0x10(%rsp),%rax
  401b7b:	48 8b 4c 24 08       	mov    0x8(%rsp),%rcx
  401b80:	48 8b 14 24          	mov    (%rsp),%rdx
  401b84:	48 8d a4 24 98 00 00 	lea    0x98(%rsp),%rsp
  401b8b:	00 
  401b8c:	b8 08 00 00 00       	mov    $0x8,%eax
  401b91:	8a 8d d6 fe ff ff    	mov    -0x12a(%rbp),%cl
  401b97:	88 8d af fd ff ff    	mov    %cl,-0x251(%rbp)
  401b9d:	c6 85 ae fd ff ff 01 	movb   $0x1,-0x252(%rbp)
  401ba4:	0f be 95 af fd ff ff 	movsbl -0x251(%rbp),%edx
  401bab:	0f be 8d ae fd ff ff 	movsbl -0x252(%rbp),%ecx
  401bb2:	d3 fa                	sar    %cl,%edx
  401bb4:	81 e2 ff 00 00 00    	and    $0xff,%edx
  401bba:	0f be b5 af fd ff ff 	movsbl -0x251(%rbp),%esi
  401bc1:	0f be bd ae fd ff ff 	movsbl -0x252(%rbp),%edi
  401bc8:	29 f8                	sub    %edi,%eax
  401bca:	89 c1                	mov    %eax,%ecx
  401bcc:	d3 e6                	shl    %cl,%esi
  401bce:	81 e6 ff 00 00 00    	and    $0xff,%esi
  401bd4:	09 f2                	or     %esi,%edx
  401bd6:	81 fa f7 00 00 00    	cmp    $0xf7,%edx
  401bdc:	0f 8f d8 2d 00 00    	jg     4049ba <main+0x3e8a>
  401be2:	66 90                	xchg   %ax,%ax
  401be4:	48 8d a4 24 68 ff ff 	lea    -0x98(%rsp),%rsp
  401beb:	ff 
  401bec:	48 89 14 24          	mov    %rdx,(%rsp)
  401bf0:	48 89 4c 24 08       	mov    %rcx,0x8(%rsp)
  401bf5:	48 89 44 24 10       	mov    %rax,0x10(%rsp)
  401bfa:	48 c7 c1 15 2a 00 00 	mov    $0x2a15,%rcx
  401c01:	e8 22 36 00 00       	callq  405228 <__afl_maybe_log>
  401c06:	48 8b 44 24 10       	mov    0x10(%rsp),%rax
  401c0b:	48 8b 4c 24 08       	mov    0x8(%rsp),%rcx
  401c10:	48 8b 14 24          	mov    (%rsp),%rdx
  401c14:	48 8d a4 24 98 00 00 	lea    0x98(%rsp),%rsp
  401c1b:	00 
  401c1c:	b8 08 00 00 00       	mov    $0x8,%eax
  401c21:	8a 8d 13 ff ff ff    	mov    -0xed(%rbp),%cl
  401c27:	88 8d af fd ff ff    	mov    %cl,-0x251(%rbp)
  401c2d:	c6 85 ae fd ff ff 06 	movb   $0x6,-0x252(%rbp)
  401c34:	0f be 95 af fd ff ff 	movsbl -0x251(%rbp),%edx
  401c3b:	0f be 8d ae fd ff ff 	movsbl -0x252(%rbp),%ecx
  401c42:	d3 fa                	sar    %cl,%edx
  401c44:	81 e2 ff 00 00 00    	and    $0xff,%edx
  401c4a:	0f be b5 af fd ff ff 	movsbl -0x251(%rbp),%esi
  401c51:	0f be bd ae fd ff ff 	movsbl -0x252(%rbp),%edi
  401c58:	29 f8                	sub    %edi,%eax
  401c5a:	89 c1                	mov    %eax,%ecx
  401c5c:	d3 e6                	shl    %cl,%esi
  401c5e:	81 e6 ff 00 00 00    	and    $0xff,%esi
  401c64:	09 f2                	or     %esi,%edx
  401c66:	81 fa 9f 00 00 00    	cmp    $0x9f,%edx
  401c6c:	0f 8f 0c 2d 00 00    	jg     40497e <main+0x3e4e>
  401c72:	66 90                	xchg   %ax,%ax
  401c74:	48 8d a4 24 68 ff ff 	lea    -0x98(%rsp),%rsp
  401c7b:	ff 
  401c7c:	48 89 14 24          	mov    %rdx,(%rsp)
  401c80:	48 89 4c 24 08       	mov    %rcx,0x8(%rsp)
  401c85:	48 89 44 24 10       	mov    %rax,0x10(%rsp)
  401c8a:	48 c7 c1 6e d6 00 00 	mov    $0xd66e,%rcx
  401c91:	e8 92 35 00 00       	callq  405228 <__afl_maybe_log>
  401c96:	48 8b 44 24 10       	mov    0x10(%rsp),%rax
  401c9b:	48 8b 4c 24 08       	mov    0x8(%rsp),%rcx
  401ca0:	48 8b 14 24          	mov    (%rsp),%rdx
  401ca4:	48 8d a4 24 98 00 00 	lea    0x98(%rsp),%rsp
  401cab:	00 
  401cac:	8a 85 04 ff ff ff    	mov    -0xfc(%rbp),%al
  401cb2:	88 85 af fd ff ff    	mov    %al,-0x251(%rbp)
  401cb8:	c6 85 ae fd ff ff 1c 	movb   $0x1c,-0x252(%rbp)
  401cbf:	0f be 8d af fd ff ff 	movsbl -0x251(%rbp),%ecx
  401cc6:	0f be 95 ae fd ff ff 	movsbl -0x252(%rbp),%edx
  401ccd:	09 d1                	or     %edx,%ecx
  401ccf:	83 f9 48             	cmp    $0x48,%ecx
  401cd2:	0f 8f 6a 2c 00 00    	jg     404942 <main+0x3e12>
  401cd8:	48 8d a4 24 68 ff ff 	lea    -0x98(%rsp),%rsp
  401cdf:	ff 
  401ce0:	48 89 14 24          	mov    %rdx,(%rsp)
  401ce4:	48 89 4c 24 08       	mov    %rcx,0x8(%rsp)
  401ce9:	48 89 44 24 10       	mov    %rax,0x10(%rsp)
  401cee:	48 c7 c1 be 55 00 00 	mov    $0x55be,%rcx
  401cf5:	e8 2e 35 00 00       	callq  405228 <__afl_maybe_log>
  401cfa:	48 8b 44 24 10       	mov    0x10(%rsp),%rax
  401cff:	48 8b 4c 24 08       	mov    0x8(%rsp),%rcx
  401d04:	48 8b 14 24          	mov    (%rsp),%rdx
  401d08:	48 8d a4 24 98 00 00 	lea    0x98(%rsp),%rsp
  401d0f:	00 
  401d10:	8a 85 bc fe ff ff    	mov    -0x144(%rbp),%al
  401d16:	88 85 af fd ff ff    	mov    %al,-0x251(%rbp)
  401d1c:	c6 85 ae fd ff ff 49 	movb   $0x49,-0x252(%rbp)
  401d23:	0f be 8d af fd ff ff 	movsbl -0x251(%rbp),%ecx
  401d2a:	0f be 95 ae fd ff ff 	movsbl -0x252(%rbp),%edx
  401d31:	09 d1                	or     %edx,%ecx
  401d33:	83 f9 31             	cmp    $0x31,%ecx
  401d36:	0f 8c ca 2b 00 00    	jl     404906 <main+0x3dd6>
  401d3c:	48 8d a4 24 68 ff ff 	lea    -0x98(%rsp),%rsp
  401d43:	ff 
  401d44:	48 89 14 24          	mov    %rdx,(%rsp)
  401d48:	48 89 4c 24 08       	mov    %rcx,0x8(%rsp)
  401d4d:	48 89 44 24 10       	mov    %rax,0x10(%rsp)
  401d52:	48 c7 c1 6b 67 00 00 	mov    $0x676b,%rcx
  401d59:	e8 ca 34 00 00       	callq  405228 <__afl_maybe_log>
  401d5e:	48 8b 44 24 10       	mov    0x10(%rsp),%rax
  401d63:	48 8b 4c 24 08       	mov    0x8(%rsp),%rcx
  401d68:	48 8b 14 24          	mov    (%rsp),%rdx
  401d6c:	48 8d a4 24 98 00 00 	lea    0x98(%rsp),%rsp
  401d73:	00 
  401d74:	b8 08 00 00 00       	mov    $0x8,%eax
  401d79:	8a 8d cf fe ff ff    	mov    -0x131(%rbp),%cl
  401d7f:	88 8d af fd ff ff    	mov    %cl,-0x251(%rbp)
  401d85:	c6 85 ae fd ff ff 03 	movb   $0x3,-0x252(%rbp)
  401d8c:	0f be 95 af fd ff ff 	movsbl -0x251(%rbp),%edx
  401d93:	0f be 8d ae fd ff ff 	movsbl -0x252(%rbp),%ecx
  401d9a:	d3 fa                	sar    %cl,%edx
  401d9c:	81 e2 ff 00 00 00    	and    $0xff,%edx
  401da2:	0f be b5 af fd ff ff 	movsbl -0x251(%rbp),%esi
  401da9:	0f be bd ae fd ff ff 	movsbl -0x252(%rbp),%edi
  401db0:	29 f8                	sub    %edi,%eax
  401db2:	89 c1                	mov    %eax,%ecx
  401db4:	d3 e6                	shl    %cl,%esi
  401db6:	81 e6 ff 00 00 00    	and    $0xff,%esi
  401dbc:	09 f2                	or     %esi,%edx
  401dbe:	81 fa cc 00 00 00    	cmp    $0xcc,%edx
  401dc4:	0f 84 00 2b 00 00    	je     4048ca <main+0x3d9a>
  401dca:	66 90                	xchg   %ax,%ax
  401dcc:	48 8d a4 24 68 ff ff 	lea    -0x98(%rsp),%rsp
  401dd3:	ff 
  401dd4:	48 89 14 24          	mov    %rdx,(%rsp)
  401dd8:	48 89 4c 24 08       	mov    %rcx,0x8(%rsp)
  401ddd:	48 89 44 24 10       	mov    %rax,0x10(%rsp)
  401de2:	48 c7 c1 11 40 00 00 	mov    $0x4011,%rcx
  401de9:	e8 3a 34 00 00       	callq  405228 <__afl_maybe_log>
  401dee:	48 8b 44 24 10       	mov    0x10(%rsp),%rax
  401df3:	48 8b 4c 24 08       	mov    0x8(%rsp),%rcx
  401df8:	48 8b 14 24          	mov    (%rsp),%rdx
  401dfc:	48 8d a4 24 98 00 00 	lea    0x98(%rsp),%rsp
  401e03:	00 
  401e04:	8a 85 b3 fe ff ff    	mov    -0x14d(%rbp),%al
  401e0a:	88 85 af fd ff ff    	mov    %al,-0x251(%rbp)
  401e10:	c6 85 ae fd ff ff 4a 	movb   $0x4a,-0x252(%rbp)
  401e17:	0f be 8d af fd ff ff 	movsbl -0x251(%rbp),%ecx
  401e1e:	0f be 95 ae fd ff ff 	movsbl -0x252(%rbp),%edx
  401e25:	21 d1                	and    %edx,%ecx
  401e27:	83 f9 08             	cmp    $0x8,%ecx
  401e2a:	0f 85 5e 2a 00 00    	jne    40488e <main+0x3d5e>
  401e30:	48 8d a4 24 68 ff ff 	lea    -0x98(%rsp),%rsp
  401e37:	ff 
  401e38:	48 89 14 24          	mov    %rdx,(%rsp)
  401e3c:	48 89 4c 24 08       	mov    %rcx,0x8(%rsp)
  401e41:	48 89 44 24 10       	mov    %rax,0x10(%rsp)
  401e46:	48 c7 c1 71 7e 00 00 	mov    $0x7e71,%rcx
  401e4d:	e8 d6 33 00 00       	callq  405228 <__afl_maybe_log>
  401e52:	48 8b 44 24 10       	mov    0x10(%rsp),%rax
  401e57:	48 8b 4c 24 08       	mov    0x8(%rsp),%rcx
  401e5c:	48 8b 14 24          	mov    (%rsp),%rdx
  401e60:	48 8d a4 24 98 00 00 	lea    0x98(%rsp),%rsp
  401e67:	00 
  401e68:	8a 85 02 ff ff ff    	mov    -0xfe(%rbp),%al
  401e6e:	88 85 af fd ff ff    	mov    %al,-0x251(%rbp)
  401e74:	c6 85 ae fd ff ff 29 	movb   $0x29,-0x252(%rbp)
  401e7b:	0f be 8d af fd ff ff 	movsbl -0x251(%rbp),%ecx
  401e82:	0f be 95 ae fd ff ff 	movsbl -0x252(%rbp),%edx
  401e89:	21 d1                	and    %edx,%ecx
  401e8b:	83 f9 1f             	cmp    $0x1f,%ecx
  401e8e:	0f 8c be 29 00 00    	jl     404852 <main+0x3d22>
  401e94:	48 8d a4 24 68 ff ff 	lea    -0x98(%rsp),%rsp
  401e9b:	ff 
  401e9c:	48 89 14 24          	mov    %rdx,(%rsp)
  401ea0:	48 89 4c 24 08       	mov    %rcx,0x8(%rsp)
  401ea5:	48 89 44 24 10       	mov    %rax,0x10(%rsp)
  401eaa:	48 c7 c1 2a b7 00 00 	mov    $0xb72a,%rcx
  401eb1:	e8 72 33 00 00       	callq  405228 <__afl_maybe_log>
  401eb6:	48 8b 44 24 10       	mov    0x10(%rsp),%rax
  401ebb:	48 8b 4c 24 08       	mov    0x8(%rsp),%rcx
  401ec0:	48 8b 14 24          	mov    (%rsp),%rdx
  401ec4:	48 8d a4 24 98 00 00 	lea    0x98(%rsp),%rsp
  401ecb:	00 
  401ecc:	b8 08 00 00 00       	mov    $0x8,%eax
  401ed1:	8a 8d df fe ff ff    	mov    -0x121(%rbp),%cl
  401ed7:	88 8d af fd ff ff    	mov    %cl,-0x251(%rbp)
  401edd:	c6 85 ae fd ff ff 07 	movb   $0x7,-0x252(%rbp)
  401ee4:	0f be 95 af fd ff ff 	movsbl -0x251(%rbp),%edx
  401eeb:	0f be 8d ae fd ff ff 	movsbl -0x252(%rbp),%ecx
  401ef2:	d3 fa                	sar    %cl,%edx
  401ef4:	81 e2 ff 00 00 00    	and    $0xff,%edx
  401efa:	0f be b5 af fd ff ff 	movsbl -0x251(%rbp),%esi
  401f01:	0f be bd ae fd ff ff 	movsbl -0x252(%rbp),%edi
  401f08:	29 f8                	sub    %edi,%eax
  401f0a:	89 c1                	mov    %eax,%ecx
  401f0c:	d3 e6                	shl    %cl,%esi
  401f0e:	81 e6 ff 00 00 00    	and    $0xff,%esi
  401f14:	09 f2                	or     %esi,%edx
  401f16:	83 fa 1d             	cmp    $0x1d,%edx
  401f19:	0f 8c f7 28 00 00    	jl     404816 <main+0x3ce6>
  401f1f:	90                   	nop
  401f20:	48 8d a4 24 68 ff ff 	lea    -0x98(%rsp),%rsp
  401f27:	ff 
  401f28:	48 89 14 24          	mov    %rdx,(%rsp)
  401f2c:	48 89 4c 24 08       	mov    %rcx,0x8(%rsp)
  401f31:	48 89 44 24 10       	mov    %rax,0x10(%rsp)
  401f36:	48 c7 c1 a3 a1 00 00 	mov    $0xa1a3,%rcx
  401f3d:	e8 e6 32 00 00       	callq  405228 <__afl_maybe_log>
  401f42:	48 8b 44 24 10       	mov    0x10(%rsp),%rax
  401f47:	48 8b 4c 24 08       	mov    0x8(%rsp),%rcx
  401f4c:	48 8b 14 24          	mov    (%rsp),%rdx
  401f50:	48 8d a4 24 98 00 00 	lea    0x98(%rsp),%rsp
  401f57:	00 
  401f58:	8a 85 f7 fe ff ff    	mov    -0x109(%rbp),%al
  401f5e:	88 85 af fd ff ff    	mov    %al,-0x251(%rbp)
  401f64:	c6 85 ae fd ff ff 00 	movb   $0x0,-0x252(%rbp)
  401f6b:	0f be 8d af fd ff ff 	movsbl -0x251(%rbp),%ecx
  401f72:	83 f1 ff             	xor    $0xffffffff,%ecx
  401f75:	81 e1 ff 00 00 00    	and    $0xff,%ecx
  401f7b:	81 f9 cb 00 00 00    	cmp    $0xcb,%ecx
  401f81:	0f 8e 53 28 00 00    	jle    4047da <main+0x3caa>
  401f87:	90                   	nop
  401f88:	48 8d a4 24 68 ff ff 	lea    -0x98(%rsp),%rsp
  401f8f:	ff 
  401f90:	48 89 14 24          	mov    %rdx,(%rsp)
  401f94:	48 89 4c 24 08       	mov    %rcx,0x8(%rsp)
  401f99:	48 89 44 24 10       	mov    %rax,0x10(%rsp)
  401f9e:	48 c7 c1 54 45 00 00 	mov    $0x4554,%rcx
  401fa5:	e8 7e 32 00 00       	callq  405228 <__afl_maybe_log>
  401faa:	48 8b 44 24 10       	mov    0x10(%rsp),%rax
  401faf:	48 8b 4c 24 08       	mov    0x8(%rsp),%rcx
  401fb4:	48 8b 14 24          	mov    (%rsp),%rdx
  401fb8:	48 8d a4 24 98 00 00 	lea    0x98(%rsp),%rsp
  401fbf:	00 
  401fc0:	8a 85 d3 fe ff ff    	mov    -0x12d(%rbp),%al
  401fc6:	88 85 af fd ff ff    	mov    %al,-0x251(%rbp)
  401fcc:	c6 85 ae fd ff ff 37 	movb   $0x37,-0x252(%rbp)
  401fd3:	0f be 8d af fd ff ff 	movsbl -0x251(%rbp),%ecx
  401fda:	0f be 95 ae fd ff ff 	movsbl -0x252(%rbp),%edx
  401fe1:	31 d1                	xor    %edx,%ecx
  401fe3:	81 f9 b0 00 00 00    	cmp    $0xb0,%ecx
  401fe9:	0f 8f af 27 00 00    	jg     40479e <main+0x3c6e>
  401fef:	90                   	nop
  401ff0:	48 8d a4 24 68 ff ff 	lea    -0x98(%rsp),%rsp
  401ff7:	ff 
  401ff8:	48 89 14 24          	mov    %rdx,(%rsp)
  401ffc:	48 89 4c 24 08       	mov    %rcx,0x8(%rsp)
  402001:	48 89 44 24 10       	mov    %rax,0x10(%rsp)
  402006:	48 c7 c1 4f 28 00 00 	mov    $0x284f,%rcx
  40200d:	e8 16 32 00 00       	callq  405228 <__afl_maybe_log>
  402012:	48 8b 44 24 10       	mov    0x10(%rsp),%rax
  402017:	48 8b 4c 24 08       	mov    0x8(%rsp),%rcx
  40201c:	48 8b 14 24          	mov    (%rsp),%rdx
  402020:	48 8d a4 24 98 00 00 	lea    0x98(%rsp),%rsp
  402027:	00 
  402028:	8a 85 ee fe ff ff    	mov    -0x112(%rbp),%al
  40202e:	88 85 af fd ff ff    	mov    %al,-0x251(%rbp)
  402034:	c6 85 ae fd ff ff 56 	movb   $0x56,-0x252(%rbp)
  40203b:	0f be 8d af fd ff ff 	movsbl -0x251(%rbp),%ecx
  402042:	0f be 95 ae fd ff ff 	movsbl -0x252(%rbp),%edx
  402049:	09 d1                	or     %edx,%ecx
  40204b:	83 f9 7d             	cmp    $0x7d,%ecx
  40204e:	0f 8e 0e 27 00 00    	jle    404762 <main+0x3c32>
  402054:	48 8d a4 24 68 ff ff 	lea    -0x98(%rsp),%rsp
  40205b:	ff 
  40205c:	48 89 14 24          	mov    %rdx,(%rsp)
  402060:	48 89 4c 24 08       	mov    %rcx,0x8(%rsp)
  402065:	48 89 44 24 10       	mov    %rax,0x10(%rsp)
  40206a:	48 c7 c1 c2 ef 00 00 	mov    $0xefc2,%rcx
  402071:	e8 b2 31 00 00       	callq  405228 <__afl_maybe_log>
  402076:	48 8b 44 24 10       	mov    0x10(%rsp),%rax
  40207b:	48 8b 4c 24 08       	mov    0x8(%rsp),%rcx
  402080:	48 8b 14 24          	mov    (%rsp),%rdx
  402084:	48 8d a4 24 98 00 00 	lea    0x98(%rsp),%rsp
  40208b:	00 
  40208c:	b8 ff 00 00 00       	mov    $0xff,%eax
  402091:	b9 08 00 00 00       	mov    $0x8,%ecx
  402096:	8a 95 ce fe ff ff    	mov    -0x132(%rbp),%dl
  40209c:	88 95 af fd ff ff    	mov    %dl,-0x251(%rbp)
  4020a2:	c6 85 ae fd ff ff 07 	movb   $0x7,-0x252(%rbp)
  4020a9:	0f be b5 af fd ff ff 	movsbl -0x251(%rbp),%esi
  4020b0:	0f be bd ae fd ff ff 	movsbl -0x252(%rbp),%edi
  4020b7:	89 8d 5c fd ff ff    	mov    %ecx,-0x2a4(%rbp)
  4020bd:	89 f9                	mov    %edi,%ecx
  4020bf:	d3 e6                	shl    %cl,%esi
  4020c1:	81 e6 ff 00 00 00    	and    $0xff,%esi
  4020c7:	0f be bd af fd ff ff 	movsbl -0x251(%rbp),%edi
  4020ce:	44 0f be 85 ae fd ff 	movsbl -0x252(%rbp),%r8d
  4020d5:	ff 
  4020d6:	44 8b 8d 5c fd ff ff 	mov    -0x2a4(%rbp),%r9d
  4020dd:	45 29 c1             	sub    %r8d,%r9d
  4020e0:	44 89 c9             	mov    %r9d,%ecx
  4020e3:	d3 ff                	sar    %cl,%edi
  4020e5:	81 e7 ff 00 00 00    	and    $0xff,%edi
  4020eb:	0f be 8d ae fd ff ff 	movsbl -0x252(%rbp),%ecx
  4020f2:	d3 e0                	shl    %cl,%eax
  4020f4:	25 ff 00 00 00       	and    $0xff,%eax
  4020f9:	83 f0 ff             	xor    $0xffffffff,%eax
  4020fc:	21 c7                	and    %eax,%edi
  4020fe:	09 fe                	or     %edi,%esi
  402100:	81 fe b7 00 00 00    	cmp    $0xb7,%esi
  402106:	0f 84 1a 26 00 00    	je     404726 <main+0x3bf6>
  40210c:	48 8d a4 24 68 ff ff 	lea    -0x98(%rsp),%rsp
  402113:	ff 
  402114:	48 89 14 24          	mov    %rdx,(%rsp)
  402118:	48 89 4c 24 08       	mov    %rcx,0x8(%rsp)
  40211d:	48 89 44 24 10       	mov    %rax,0x10(%rsp)
  402122:	48 c7 c1 a9 17 00 00 	mov    $0x17a9,%rcx
  402129:	e8 fa 30 00 00       	callq  405228 <__afl_maybe_log>
  40212e:	48 8b 44 24 10       	mov    0x10(%rsp),%rax
  402133:	48 8b 4c 24 08       	mov    0x8(%rsp),%rcx
  402138:	48 8b 14 24          	mov    (%rsp),%rdx
  40213c:	48 8d a4 24 98 00 00 	lea    0x98(%rsp),%rsp
  402143:	00 
  402144:	8a 85 b8 fe ff ff    	mov    -0x148(%rbp),%al
  40214a:	88 85 af fd ff ff    	mov    %al,-0x251(%rbp)
  402150:	c6 85 ae fd ff ff 7a 	movb   $0x7a,-0x252(%rbp)
  402157:	0f be 8d af fd ff ff 	movsbl -0x251(%rbp),%ecx
  40215e:	0f be 95 ae fd ff ff 	movsbl -0x252(%rbp),%edx
  402165:	21 d1                	and    %edx,%ecx
  402167:	81 f9 b8 00 00 00    	cmp    $0xb8,%ecx
  40216d:	0f 8d 77 25 00 00    	jge    4046ea <main+0x3bba>
  402173:	90                   	nop
  402174:	48 8d a4 24 68 ff ff 	lea    -0x98(%rsp),%rsp
  40217b:	ff 
  40217c:	48 89 14 24          	mov    %rdx,(%rsp)
  402180:	48 89 4c 24 08       	mov    %rcx,0x8(%rsp)
  402185:	48 89 44 24 10       	mov    %rax,0x10(%rsp)
  40218a:	48 c7 c1 8c 34 00 00 	mov    $0x348c,%rcx
  402191:	e8 92 30 00 00       	callq  405228 <__afl_maybe_log>
  402196:	48 8b 44 24 10       	mov    0x10(%rsp),%rax
  40219b:	48 8b 4c 24 08       	mov    0x8(%rsp),%rcx
  4021a0:	48 8b 14 24          	mov    (%rsp),%rdx
  4021a4:	48 8d a4 24 98 00 00 	lea    0x98(%rsp),%rsp
  4021ab:	00 
  4021ac:	8a 85 b1 fe ff ff    	mov    -0x14f(%rbp),%al
  4021b2:	88 85 af fd ff ff    	mov    %al,-0x251(%rbp)
  4021b8:	c6 85 ae fd ff ff 58 	movb   $0x58,-0x252(%rbp)
  4021bf:	0f be 8d af fd ff ff 	movsbl -0x251(%rbp),%ecx
  4021c6:	0f be 95 ae fd ff ff 	movsbl -0x252(%rbp),%edx
  4021cd:	21 d1                	and    %edx,%ecx
  4021cf:	83 f9 0e             	cmp    $0xe,%ecx
  4021d2:	0f 8e d6 24 00 00    	jle    4046ae <main+0x3b7e>
  4021d8:	48 8d a4 24 68 ff ff 	lea    -0x98(%rsp),%rsp
  4021df:	ff 
  4021e0:	48 89 14 24          	mov    %rdx,(%rsp)
  4021e4:	48 89 4c 24 08       	mov    %rcx,0x8(%rsp)
  4021e9:	48 89 44 24 10       	mov    %rax,0x10(%rsp)
  4021ee:	48 c7 c1 e2 f7 00 00 	mov    $0xf7e2,%rcx
  4021f5:	e8 2e 30 00 00       	callq  405228 <__afl_maybe_log>
  4021fa:	48 8b 44 24 10       	mov    0x10(%rsp),%rax
  4021ff:	48 8b 4c 24 08       	mov    0x8(%rsp),%rcx
  402204:	48 8b 14 24          	mov    (%rsp),%rdx
  402208:	48 8d a4 24 98 00 00 	lea    0x98(%rsp),%rsp
  40220f:	00 
  402210:	8a 85 03 ff ff ff    	mov    -0xfd(%rbp),%al
  402216:	88 85 af fd ff ff    	mov    %al,-0x251(%rbp)
  40221c:	c6 85 ae fd ff ff 2a 	movb   $0x2a,-0x252(%rbp)
  402223:	0f be 8d af fd ff ff 	movsbl -0x251(%rbp),%ecx
  40222a:	0f be 95 ae fd ff ff 	movsbl -0x252(%rbp),%edx
  402231:	31 d1                	xor    %edx,%ecx
  402233:	83 f9 69             	cmp    $0x69,%ecx
  402236:	0f 8f 36 24 00 00    	jg     404672 <main+0x3b42>
  40223c:	48 8d a4 24 68 ff ff 	lea    -0x98(%rsp),%rsp
  402243:	ff 
  402244:	48 89 14 24          	mov    %rdx,(%rsp)
  402248:	48 89 4c 24 08       	mov    %rcx,0x8(%rsp)
  40224d:	48 89 44 24 10       	mov    %rax,0x10(%rsp)
  402252:	48 c7 c1 ed c6 00 00 	mov    $0xc6ed,%rcx
  402259:	e8 ca 2f 00 00       	callq  405228 <__afl_maybe_log>
  40225e:	48 8b 44 24 10       	mov    0x10(%rsp),%rax
  402263:	48 8b 4c 24 08       	mov    0x8(%rsp),%rcx
  402268:	48 8b 14 24          	mov    (%rsp),%rdx
  40226c:	48 8d a4 24 98 00 00 	lea    0x98(%rsp),%rsp
  402273:	00 
  402274:	8a 85 f2 fe ff ff    	mov    -0x10e(%rbp),%al
  40227a:	88 85 af fd ff ff    	mov    %al,-0x251(%rbp)
  402280:	c6 85 ae fd ff ff 3e 	movb   $0x3e,-0x252(%rbp)
  402287:	0f be 8d af fd ff ff 	movsbl -0x251(%rbp),%ecx
  40228e:	0f be 95 ae fd ff ff 	movsbl -0x252(%rbp),%edx
  402295:	09 d1                	or     %edx,%ecx
  402297:	83 f9 42             	cmp    $0x42,%ecx
  40229a:	0f 8c 96 23 00 00    	jl     404636 <main+0x3b06>
  4022a0:	48 8d a4 24 68 ff ff 	lea    -0x98(%rsp),%rsp
  4022a7:	ff 
  4022a8:	48 89 14 24          	mov    %rdx,(%rsp)
  4022ac:	48 89 4c 24 08       	mov    %rcx,0x8(%rsp)
  4022b1:	48 89 44 24 10       	mov    %rax,0x10(%rsp)
  4022b6:	48 c7 c1 4d d0 00 00 	mov    $0xd04d,%rcx
  4022bd:	e8 66 2f 00 00       	callq  405228 <__afl_maybe_log>
  4022c2:	48 8b 44 24 10       	mov    0x10(%rsp),%rax
  4022c7:	48 8b 4c 24 08       	mov    0x8(%rsp),%rcx
  4022cc:	48 8b 14 24          	mov    (%rsp),%rdx
  4022d0:	48 8d a4 24 98 00 00 	lea    0x98(%rsp),%rsp
  4022d7:	00 
  4022d8:	8a 85 01 ff ff ff    	mov    -0xff(%rbp),%al
  4022de:	88 85 af fd ff ff    	mov    %al,-0x251(%rbp)
  4022e4:	c6 85 ae fd ff ff 3a 	movb   $0x3a,-0x252(%rbp)
  4022eb:	0f be 8d af fd ff ff 	movsbl -0x251(%rbp),%ecx
  4022f2:	0f be 95 ae fd ff ff 	movsbl -0x252(%rbp),%edx
  4022f9:	31 d1                	xor    %edx,%ecx
  4022fb:	83 f9 71             	cmp    $0x71,%ecx
  4022fe:	0f 8d f6 22 00 00    	jge    4045fa <main+0x3aca>
  402304:	48 8d a4 24 68 ff ff 	lea    -0x98(%rsp),%rsp
  40230b:	ff 
  40230c:	48 89 14 24          	mov    %rdx,(%rsp)
  402310:	48 89 4c 24 08       	mov    %rcx,0x8(%rsp)
  402315:	48 89 44 24 10       	mov    %rax,0x10(%rsp)
  40231a:	48 c7 c1 d7 55 00 00 	mov    $0x55d7,%rcx
  402321:	e8 02 2f 00 00       	callq  405228 <__afl_maybe_log>
  402326:	48 8b 44 24 10       	mov    0x10(%rsp),%rax
  40232b:	48 8b 4c 24 08       	mov    0x8(%rsp),%rcx
  402330:	48 8b 14 24          	mov    (%rsp),%rdx
  402334:	48 8d a4 24 98 00 00 	lea    0x98(%rsp),%rsp
  40233b:	00 
  40233c:	8a 85 c2 fe ff ff    	mov    -0x13e(%rbp),%al
  402342:	88 85 af fd ff ff    	mov    %al,-0x251(%rbp)
  402348:	c6 85 ae fd ff ff 00 	movb   $0x0,-0x252(%rbp)
  40234f:	0f be 8d af fd ff ff 	movsbl -0x251(%rbp),%ecx
  402356:	83 f1 ff             	xor    $0xffffffff,%ecx
  402359:	81 e1 ff 00 00 00    	and    $0xff,%ecx
  40235f:	81 f9 89 00 00 00    	cmp    $0x89,%ecx
  402365:	0f 85 53 22 00 00    	jne    4045be <main+0x3a8e>
  40236b:	90                   	nop
  40236c:	48 8d a4 24 68 ff ff 	lea    -0x98(%rsp),%rsp
  402373:	ff 
  402374:	48 89 14 24          	mov    %rdx,(%rsp)
  402378:	48 89 4c 24 08       	mov    %rcx,0x8(%rsp)
  40237d:	48 89 44 24 10       	mov    %rax,0x10(%rsp)
  402382:	48 c7 c1 ee dd 00 00 	mov    $0xddee,%rcx
  402389:	e8 9a 2e 00 00       	callq  405228 <__afl_maybe_log>
  40238e:	48 8b 44 24 10       	mov    0x10(%rsp),%rax
  402393:	48 8b 4c 24 08       	mov    0x8(%rsp),%rcx
  402398:	48 8b 14 24          	mov    (%rsp),%rdx
  40239c:	48 8d a4 24 98 00 00 	lea    0x98(%rsp),%rsp
  4023a3:	00 
  4023a4:	8a 85 b2 fe ff ff    	mov    -0x14e(%rbp),%al
  4023aa:	88 85 af fd ff ff    	mov    %al,-0x251(%rbp)
  4023b0:	c6 85 ae fd ff ff 03 	movb   $0x3,-0x252(%rbp)
  4023b7:	0f be 8d af fd ff ff 	movsbl -0x251(%rbp),%ecx
  4023be:	0f be 95 ae fd ff ff 	movsbl -0x252(%rbp),%edx
  4023c5:	89 8d 58 fd ff ff    	mov    %ecx,-0x2a8(%rbp)
  4023cb:	89 d1                	mov    %edx,%ecx
  4023cd:	8b 95 58 fd ff ff    	mov    -0x2a8(%rbp),%edx
  4023d3:	d3 fa                	sar    %cl,%edx
  4023d5:	81 e2 ff 00 00 00    	and    $0xff,%edx
  4023db:	83 fa 43             	cmp    $0x43,%edx
  4023de:	0f 8d 9e 21 00 00    	jge    404582 <main+0x3a52>
  4023e4:	48 8d a4 24 68 ff ff 	lea    -0x98(%rsp),%rsp
  4023eb:	ff 
  4023ec:	48 89 14 24          	mov    %rdx,(%rsp)
  4023f0:	48 89 4c 24 08       	mov    %rcx,0x8(%rsp)
  4023f5:	48 89 44 24 10       	mov    %rax,0x10(%rsp)
  4023fa:	48 c7 c1 12 be 00 00 	mov    $0xbe12,%rcx
  402401:	e8 22 2e 00 00       	callq  405228 <__afl_maybe_log>
  402406:	48 8b 44 24 10       	mov    0x10(%rsp),%rax
  40240b:	48 8b 4c 24 08       	mov    0x8(%rsp),%rcx
  402410:	48 8b 14 24          	mov    (%rsp),%rdx
  402414:	48 8d a4 24 98 00 00 	lea    0x98(%rsp),%rsp
  40241b:	00 
  40241c:	8a 85 b5 fe ff ff    	mov    -0x14b(%rbp),%al
  402422:	88 85 af fd ff ff    	mov    %al,-0x251(%rbp)
  402428:	c6 85 ae fd ff ff 02 	movb   $0x2,-0x252(%rbp)
  40242f:	0f be 8d af fd ff ff 	movsbl -0x251(%rbp),%ecx
  402436:	0f be 95 ae fd ff ff 	movsbl -0x252(%rbp),%edx
  40243d:	89 8d 54 fd ff ff    	mov    %ecx,-0x2ac(%rbp)
  402443:	89 d1                	mov    %edx,%ecx
  402445:	8b 95 54 fd ff ff    	mov    -0x2ac(%rbp),%edx
  40244b:	d3 fa                	sar    %cl,%edx
  40244d:	81 e2 ff 00 00 00    	and    $0xff,%edx
  402453:	81 fa b8 00 00 00    	cmp    $0xb8,%edx
  402459:	0f 84 e7 20 00 00    	je     404546 <main+0x3a16>
  40245f:	90                   	nop
  402460:	48 8d a4 24 68 ff ff 	lea    -0x98(%rsp),%rsp
  402467:	ff 
  402468:	48 89 14 24          	mov    %rdx,(%rsp)
  40246c:	48 89 4c 24 08       	mov    %rcx,0x8(%rsp)
  402471:	48 89 44 24 10       	mov    %rax,0x10(%rsp)
  402476:	48 c7 c1 c0 c3 00 00 	mov    $0xc3c0,%rcx
  40247d:	e8 a6 2d 00 00       	callq  405228 <__afl_maybe_log>
  402482:	48 8b 44 24 10       	mov    0x10(%rsp),%rax
  402487:	48 8b 4c 24 08       	mov    0x8(%rsp),%rcx
  40248c:	48 8b 14 24          	mov    (%rsp),%rdx
  402490:	48 8d a4 24 98 00 00 	lea    0x98(%rsp),%rsp
  402497:	00 
  402498:	8a 85 fb fe ff ff    	mov    -0x105(%rbp),%al
  40249e:	88 85 af fd ff ff    	mov    %al,-0x251(%rbp)
  4024a4:	c6 85 ae fd ff ff 01 	movb   $0x1,-0x252(%rbp)
  4024ab:	0f be 8d af fd ff ff 	movsbl -0x251(%rbp),%ecx
  4024b2:	0f be 95 ae fd ff ff 	movsbl -0x252(%rbp),%edx
  4024b9:	89 8d 50 fd ff ff    	mov    %ecx,-0x2b0(%rbp)
  4024bf:	89 d1                	mov    %edx,%ecx
  4024c1:	8b 95 50 fd ff ff    	mov    -0x2b0(%rbp),%edx
  4024c7:	d3 fa                	sar    %cl,%edx
  4024c9:	81 e2 ff 00 00 00    	and    $0xff,%edx
  4024cf:	83 fa 24             	cmp    $0x24,%edx
  4024d2:	0f 85 32 20 00 00    	jne    40450a <main+0x39da>
  4024d8:	48 8d a4 24 68 ff ff 	lea    -0x98(%rsp),%rsp
  4024df:	ff 
  4024e0:	48 89 14 24          	mov    %rdx,(%rsp)
  4024e4:	48 89 4c 24 08       	mov    %rcx,0x8(%rsp)
  4024e9:	48 89 44 24 10       	mov    %rax,0x10(%rsp)
  4024ee:	48 c7 c1 b0 51 00 00 	mov    $0x51b0,%rcx
  4024f5:	e8 2e 2d 00 00       	callq  405228 <__afl_maybe_log>
  4024fa:	48 8b 44 24 10       	mov    0x10(%rsp),%rax
  4024ff:	48 8b 4c 24 08       	mov    0x8(%rsp),%rcx
  402504:	48 8b 14 24          	mov    (%rsp),%rdx
  402508:	48 8d a4 24 98 00 00 	lea    0x98(%rsp),%rsp
  40250f:	00 
  402510:	8a 85 0b ff ff ff    	mov    -0xf5(%rbp),%al
  402516:	88 85 af fd ff ff    	mov    %al,-0x251(%rbp)
  40251c:	c6 85 ae fd ff ff 50 	movb   $0x50,-0x252(%rbp)
  402523:	0f be 8d af fd ff ff 	movsbl -0x251(%rbp),%ecx
  40252a:	0f be 95 ae fd ff ff 	movsbl -0x252(%rbp),%edx
  402531:	21 d1                	and    %edx,%ecx
  402533:	83 f9 0c             	cmp    $0xc,%ecx
  402536:	0f 8c 92 1f 00 00    	jl     4044ce <main+0x399e>
  40253c:	48 8d a4 24 68 ff ff 	lea    -0x98(%rsp),%rsp
  402543:	ff 
  402544:	48 89 14 24          	mov    %rdx,(%rsp)
  402548:	48 89 4c 24 08       	mov    %rcx,0x8(%rsp)
  40254d:	48 89 44 24 10       	mov    %rax,0x10(%rsp)
  402552:	48 c7 c1 cc 89 00 00 	mov    $0x89cc,%rcx
  402559:	e8 ca 2c 00 00       	callq  405228 <__afl_maybe_log>
  40255e:	48 8b 44 24 10       	mov    0x10(%rsp),%rax
  402563:	48 8b 4c 24 08       	mov    0x8(%rsp),%rcx
  402568:	48 8b 14 24          	mov    (%rsp),%rdx
  40256c:	48 8d a4 24 98 00 00 	lea    0x98(%rsp),%rsp
  402573:	00 
  402574:	b8 ff 00 00 00       	mov    $0xff,%eax
  402579:	b9 08 00 00 00       	mov    $0x8,%ecx
  40257e:	8a 95 b9 fe ff ff    	mov    -0x147(%rbp),%dl
  402584:	88 95 af fd ff ff    	mov    %dl,-0x251(%rbp)
  40258a:	c6 85 ae fd ff ff 05 	movb   $0x5,-0x252(%rbp)
  402591:	0f be b5 af fd ff ff 	movsbl -0x251(%rbp),%esi
  402598:	0f be bd ae fd ff ff 	movsbl -0x252(%rbp),%edi
  40259f:	89 8d 4c fd ff ff    	mov    %ecx,-0x2b4(%rbp)
  4025a5:	89 f9                	mov    %edi,%ecx
  4025a7:	d3 e6                	shl    %cl,%esi
  4025a9:	81 e6 ff 00 00 00    	and    $0xff,%esi
  4025af:	0f be bd af fd ff ff 	movsbl -0x251(%rbp),%edi
  4025b6:	44 0f be 85 ae fd ff 	movsbl -0x252(%rbp),%r8d
  4025bd:	ff 
  4025be:	44 8b 8d 4c fd ff ff 	mov    -0x2b4(%rbp),%r9d
  4025c5:	45 29 c1             	sub    %r8d,%r9d
  4025c8:	44 89 c9             	mov    %r9d,%ecx
  4025cb:	d3 ff                	sar    %cl,%edi
  4025cd:	81 e7 ff 00 00 00    	and    $0xff,%edi
  4025d3:	0f be 8d ae fd ff ff 	movsbl -0x252(%rbp),%ecx
  4025da:	d3 e0                	shl    %cl,%eax
  4025dc:	25 ff 00 00 00       	and    $0xff,%eax
  4025e1:	83 f0 ff             	xor    $0xffffffff,%eax
  4025e4:	21 c7                	and    %eax,%edi
  4025e6:	09 fe                	or     %edi,%esi
  4025e8:	81 fe c3 00 00 00    	cmp    $0xc3,%esi
  4025ee:	0f 8e 9e 1e 00 00    	jle    404492 <main+0x3962>
  4025f4:	48 8d a4 24 68 ff ff 	lea    -0x98(%rsp),%rsp
  4025fb:	ff 
  4025fc:	48 89 14 24          	mov    %rdx,(%rsp)
  402600:	48 89 4c 24 08       	mov    %rcx,0x8(%rsp)
  402605:	48 89 44 24 10       	mov    %rax,0x10(%rsp)
  40260a:	48 c7 c1 c7 8b 00 00 	mov    $0x8bc7,%rcx
  402611:	e8 12 2c 00 00       	callq  405228 <__afl_maybe_log>
  402616:	48 8b 44 24 10       	mov    0x10(%rsp),%rax
  40261b:	48 8b 4c 24 08       	mov    0x8(%rsp),%rcx
  402620:	48 8b 14 24          	mov    (%rsp),%rdx
  402624:	48 8d a4 24 98 00 00 	lea    0x98(%rsp),%rsp
  40262b:	00 
  40262c:	b8 08 00 00 00       	mov    $0x8,%eax
  402631:	8a 8d cd fe ff ff    	mov    -0x133(%rbp),%cl
  402637:	88 8d af fd ff ff    	mov    %cl,-0x251(%rbp)
  40263d:	c6 85 ae fd ff ff 04 	movb   $0x4,-0x252(%rbp)
  402644:	0f be 95 af fd ff ff 	movsbl -0x251(%rbp),%edx
  40264b:	0f be 8d ae fd ff ff 	movsbl -0x252(%rbp),%ecx
  402652:	d3 fa                	sar    %cl,%edx
  402654:	81 e2 ff 00 00 00    	and    $0xff,%edx
  40265a:	0f be b5 af fd ff ff 	movsbl -0x251(%rbp),%esi
  402661:	0f be bd ae fd ff ff 	movsbl -0x252(%rbp),%edi
  402668:	29 f8                	sub    %edi,%eax
  40266a:	89 c1                	mov    %eax,%ecx
  40266c:	d3 e6                	shl    %cl,%esi
  40266e:	81 e6 ff 00 00 00    	and    $0xff,%esi
  402674:	09 f2                	or     %esi,%edx
  402676:	83 fa 7c             	cmp    $0x7c,%edx
  402679:	0f 8f d7 1d 00 00    	jg     404456 <main+0x3926>
  40267f:	90                   	nop
  402680:	48 8d a4 24 68 ff ff 	lea    -0x98(%rsp),%rsp
  402687:	ff 
  402688:	48 89 14 24          	mov    %rdx,(%rsp)
  40268c:	48 89 4c 24 08       	mov    %rcx,0x8(%rsp)
  402691:	48 89 44 24 10       	mov    %rax,0x10(%rsp)
  402696:	48 c7 c1 ee 44 00 00 	mov    $0x44ee,%rcx
  40269d:	e8 86 2b 00 00       	callq  405228 <__afl_maybe_log>
  4026a2:	48 8b 44 24 10       	mov    0x10(%rsp),%rax
  4026a7:	48 8b 4c 24 08       	mov    0x8(%rsp),%rcx
  4026ac:	48 8b 14 24          	mov    (%rsp),%rdx
  4026b0:	48 8d a4 24 98 00 00 	lea    0x98(%rsp),%rsp
  4026b7:	00 
  4026b8:	b8 ff 00 00 00       	mov    $0xff,%eax
  4026bd:	b9 08 00 00 00       	mov    $0x8,%ecx
  4026c2:	8a 95 eb fe ff ff    	mov    -0x115(%rbp),%dl
  4026c8:	88 95 af fd ff ff    	mov    %dl,-0x251(%rbp)
  4026ce:	c6 85 ae fd ff ff 06 	movb   $0x6,-0x252(%rbp)
  4026d5:	0f be b5 af fd ff ff 	movsbl -0x251(%rbp),%esi
  4026dc:	0f be bd ae fd ff ff 	movsbl -0x252(%rbp),%edi
  4026e3:	89 8d 48 fd ff ff    	mov    %ecx,-0x2b8(%rbp)
  4026e9:	89 f9                	mov    %edi,%ecx
  4026eb:	d3 e6                	shl    %cl,%esi
  4026ed:	81 e6 ff 00 00 00    	and    $0xff,%esi
  4026f3:	0f be bd af fd ff ff 	movsbl -0x251(%rbp),%edi
  4026fa:	44 0f be 85 ae fd ff 	movsbl -0x252(%rbp),%r8d
  402701:	ff 
  402702:	44 8b 8d 48 fd ff ff 	mov    -0x2b8(%rbp),%r9d
  402709:	45 29 c1             	sub    %r8d,%r9d
  40270c:	44 89 c9             	mov    %r9d,%ecx
  40270f:	d3 ff                	sar    %cl,%edi
  402711:	81 e7 ff 00 00 00    	and    $0xff,%edi
  402717:	0f be 8d ae fd ff ff 	movsbl -0x252(%rbp),%ecx
  40271e:	d3 e0                	shl    %cl,%eax
  402720:	25 ff 00 00 00       	and    $0xff,%eax
  402725:	83 f0 ff             	xor    $0xffffffff,%eax
  402728:	21 c7                	and    %eax,%edi
  40272a:	09 fe                	or     %edi,%esi
  40272c:	81 fe 84 00 00 00    	cmp    $0x84,%esi
  402732:	0f 8e e2 1c 00 00    	jle    40441a <main+0x38ea>
  402738:	48 8d a4 24 68 ff ff 	lea    -0x98(%rsp),%rsp
  40273f:	ff 
  402740:	48 89 14 24          	mov    %rdx,(%rsp)
  402744:	48 89 4c 24 08       	mov    %rcx,0x8(%rsp)
  402749:	48 89 44 24 10       	mov    %rax,0x10(%rsp)
  40274e:	48 c7 c1 33 22 00 00 	mov    $0x2233,%rcx
  402755:	e8 ce 2a 00 00       	callq  405228 <__afl_maybe_log>
  40275a:	48 8b 44 24 10       	mov    0x10(%rsp),%rax
  40275f:	48 8b 4c 24 08       	mov    0x8(%rsp),%rcx
  402764:	48 8b 14 24          	mov    (%rsp),%rdx
  402768:	48 8d a4 24 98 00 00 	lea    0x98(%rsp),%rsp
  40276f:	00 
  402770:	8a 85 f8 fe ff ff    	mov    -0x108(%rbp),%al
  402776:	88 85 af fd ff ff    	mov    %al,-0x251(%rbp)
  40277c:	c6 85 ae fd ff ff 00 	movb   $0x0,-0x252(%rbp)
  402783:	0f be 8d af fd ff ff 	movsbl -0x251(%rbp),%ecx
  40278a:	83 f1 ff             	xor    $0xffffffff,%ecx
  40278d:	81 e1 ff 00 00 00    	and    $0xff,%ecx
  402793:	81 f9 b9 00 00 00    	cmp    $0xb9,%ecx
  402799:	0f 85 3f 1c 00 00    	jne    4043de <main+0x38ae>
  40279f:	90                   	nop
  4027a0:	48 8d a4 24 68 ff ff 	lea    -0x98(%rsp),%rsp
  4027a7:	ff 
  4027a8:	48 89 14 24          	mov    %rdx,(%rsp)
  4027ac:	48 89 4c 24 08       	mov    %rcx,0x8(%rsp)
  4027b1:	48 89 44 24 10       	mov    %rax,0x10(%rsp)
  4027b6:	48 c7 c1 59 f3 00 00 	mov    $0xf359,%rcx
  4027bd:	e8 66 2a 00 00       	callq  405228 <__afl_maybe_log>
  4027c2:	48 8b 44 24 10       	mov    0x10(%rsp),%rax
  4027c7:	48 8b 4c 24 08       	mov    0x8(%rsp),%rcx
  4027cc:	48 8b 14 24          	mov    (%rsp),%rdx
  4027d0:	48 8d a4 24 98 00 00 	lea    0x98(%rsp),%rsp
  4027d7:	00 
  4027d8:	8a 85 f0 fe ff ff    	mov    -0x110(%rbp),%al
  4027de:	88 85 af fd ff ff    	mov    %al,-0x251(%rbp)
  4027e4:	c6 85 ae fd ff ff 02 	movb   $0x2,-0x252(%rbp)
  4027eb:	0f be 8d af fd ff ff 	movsbl -0x251(%rbp),%ecx
  4027f2:	0f be 95 ae fd ff ff 	movsbl -0x252(%rbp),%edx
  4027f9:	89 8d 44 fd ff ff    	mov    %ecx,-0x2bc(%rbp)
  4027ff:	89 d1                	mov    %edx,%ecx
  402801:	8b 95 44 fd ff ff    	mov    -0x2bc(%rbp),%edx
  402807:	d3 e2                	shl    %cl,%edx
  402809:	81 e2 ff 00 00 00    	and    $0xff,%edx
  40280f:	83 fa 30             	cmp    $0x30,%edx
  402812:	0f 85 8a 1b 00 00    	jne    4043a2 <main+0x3872>
  402818:	48 8d a4 24 68 ff ff 	lea    -0x98(%rsp),%rsp
  40281f:	ff 
  402820:	48 89 14 24          	mov    %rdx,(%rsp)
  402824:	48 89 4c 24 08       	mov    %rcx,0x8(%rsp)
  402829:	48 89 44 24 10       	mov    %rax,0x10(%rsp)
  40282e:	48 c7 c1 62 cc 00 00 	mov    $0xcc62,%rcx
  402835:	e8 ee 29 00 00       	callq  405228 <__afl_maybe_log>
  40283a:	48 8b 44 24 10       	mov    0x10(%rsp),%rax
  40283f:	48 8b 4c 24 08       	mov    0x8(%rsp),%rcx
  402844:	48 8b 14 24          	mov    (%rsp),%rdx
  402848:	48 8d a4 24 98 00 00 	lea    0x98(%rsp),%rsp
  40284f:	00 
  402850:	8a 85 c4 fe ff ff    	mov    -0x13c(%rbp),%al
  402856:	88 85 af fd ff ff    	mov    %al,-0x251(%rbp)
  40285c:	c6 85 ae fd ff ff 01 	movb   $0x1,-0x252(%rbp)
  402863:	0f be 8d af fd ff ff 	movsbl -0x251(%rbp),%ecx
  40286a:	0f be 95 ae fd ff ff 	movsbl -0x252(%rbp),%edx
  402871:	89 8d 40 fd ff ff    	mov    %ecx,-0x2c0(%rbp)
  402877:	89 d1                	mov    %edx,%ecx
  402879:	8b 95 40 fd ff ff    	mov    -0x2c0(%rbp),%edx
  40287f:	d3 fa                	sar    %cl,%edx
  402881:	81 e2 ff 00 00 00    	and    $0xff,%edx
  402887:	83 fa 2e             	cmp    $0x2e,%edx
  40288a:	0f 8c d6 1a 00 00    	jl     404366 <main+0x3836>
  402890:	48 8d a4 24 68 ff ff 	lea    -0x98(%rsp),%rsp
  402897:	ff 
  402898:	48 89 14 24          	mov    %rdx,(%rsp)
  40289c:	48 89 4c 24 08       	mov    %rcx,0x8(%rsp)
  4028a1:	48 89 44 24 10       	mov    %rax,0x10(%rsp)
  4028a6:	48 c7 c1 7d 6b 00 00 	mov    $0x6b7d,%rcx
  4028ad:	e8 76 29 00 00       	callq  405228 <__afl_maybe_log>
  4028b2:	48 8b 44 24 10       	mov    0x10(%rsp),%rax
  4028b7:	48 8b 4c 24 08       	mov    0x8(%rsp),%rcx
  4028bc:	48 8b 14 24          	mov    (%rsp),%rdx
  4028c0:	48 8d a4 24 98 00 00 	lea    0x98(%rsp),%rsp
  4028c7:	00 
  4028c8:	8a 85 fe fe ff ff    	mov    -0x102(%rbp),%al
  4028ce:	88 85 af fd ff ff    	mov    %al,-0x251(%rbp)
  4028d4:	c6 85 ae fd ff ff 01 	movb   $0x1,-0x252(%rbp)
  4028db:	0f be 8d af fd ff ff 	movsbl -0x251(%rbp),%ecx
  4028e2:	0f be 95 ae fd ff ff 	movsbl -0x252(%rbp),%edx
  4028e9:	89 8d 3c fd ff ff    	mov    %ecx,-0x2c4(%rbp)
  4028ef:	89 d1                	mov    %edx,%ecx
  4028f1:	8b 95 3c fd ff ff    	mov    -0x2c4(%rbp),%edx
  4028f7:	d3 fa                	sar    %cl,%edx
  4028f9:	81 e2 ff 00 00 00    	and    $0xff,%edx
  4028ff:	83 fa 1b             	cmp    $0x1b,%edx
  402902:	0f 85 22 1a 00 00    	jne    40432a <main+0x37fa>
  402908:	48 8d a4 24 68 ff ff 	lea    -0x98(%rsp),%rsp
  40290f:	ff 
  402910:	48 89 14 24          	mov    %rdx,(%rsp)
  402914:	48 89 4c 24 08       	mov    %rcx,0x8(%rsp)
  402919:	48 89 44 24 10       	mov    %rax,0x10(%rsp)
  40291e:	48 c7 c1 0e ab 00 00 	mov    $0xab0e,%rcx
  402925:	e8 fe 28 00 00       	callq  405228 <__afl_maybe_log>
  40292a:	48 8b 44 24 10       	mov    0x10(%rsp),%rax
  40292f:	48 8b 4c 24 08       	mov    0x8(%rsp),%rcx
  402934:	48 8b 14 24          	mov    (%rsp),%rdx
  402938:	48 8d a4 24 98 00 00 	lea    0x98(%rsp),%rsp
  40293f:	00 
  402940:	b8 08 00 00 00       	mov    $0x8,%eax
  402945:	8a 8d ba fe ff ff    	mov    -0x146(%rbp),%cl
  40294b:	88 8d af fd ff ff    	mov    %cl,-0x251(%rbp)
  402951:	c6 85 ae fd ff ff 01 	movb   $0x1,-0x252(%rbp)
  402958:	0f be 95 af fd ff ff 	movsbl -0x251(%rbp),%edx
  40295f:	0f be 8d ae fd ff ff 	movsbl -0x252(%rbp),%ecx
  402966:	d3 fa                	sar    %cl,%edx
  402968:	81 e2 ff 00 00 00    	and    $0xff,%edx
  40296e:	0f be b5 af fd ff ff 	movsbl -0x251(%rbp),%esi
  402975:	0f be bd ae fd ff ff 	movsbl -0x252(%rbp),%edi
  40297c:	29 f8                	sub    %edi,%eax
  40297e:	89 c1                	mov    %eax,%ecx
  402980:	d3 e6                	shl    %cl,%esi
  402982:	81 e6 ff 00 00 00    	and    $0xff,%esi
  402988:	09 f2                	or     %esi,%edx
  40298a:	83 fa 06             	cmp    $0x6,%edx
  40298d:	0f 8e 5b 19 00 00    	jle    4042ee <main+0x37be>
  402993:	90                   	nop
  402994:	48 8d a4 24 68 ff ff 	lea    -0x98(%rsp),%rsp
  40299b:	ff 
  40299c:	48 89 14 24          	mov    %rdx,(%rsp)
  4029a0:	48 89 4c 24 08       	mov    %rcx,0x8(%rsp)
  4029a5:	48 89 44 24 10       	mov    %rax,0x10(%rsp)
  4029aa:	48 c7 c1 be 4a 00 00 	mov    $0x4abe,%rcx
  4029b1:	e8 72 28 00 00       	callq  405228 <__afl_maybe_log>
  4029b6:	48 8b 44 24 10       	mov    0x10(%rsp),%rax
  4029bb:	48 8b 4c 24 08       	mov    0x8(%rsp),%rcx
  4029c0:	48 8b 14 24          	mov    (%rsp),%rdx
  4029c4:	48 8d a4 24 98 00 00 	lea    0x98(%rsp),%rsp
  4029cb:	00 
  4029cc:	8a 85 0e ff ff ff    	mov    -0xf2(%rbp),%al
  4029d2:	88 85 af fd ff ff    	mov    %al,-0x251(%rbp)
  4029d8:	c6 85 ae fd ff ff 6f 	movb   $0x6f,-0x252(%rbp)
  4029df:	0f be 8d af fd ff ff 	movsbl -0x251(%rbp),%ecx
  4029e6:	0f be 95 ae fd ff ff 	movsbl -0x252(%rbp),%edx
  4029ed:	31 d1                	xor    %edx,%ecx
  4029ef:	83 f9 10             	cmp    $0x10,%ecx
  4029f2:	0f 8e ba 18 00 00    	jle    4042b2 <main+0x3782>
  4029f8:	48 8d a4 24 68 ff ff 	lea    -0x98(%rsp),%rsp
  4029ff:	ff 
  402a00:	48 89 14 24          	mov    %rdx,(%rsp)
  402a04:	48 89 4c 24 08       	mov    %rcx,0x8(%rsp)
  402a09:	48 89 44 24 10       	mov    %rax,0x10(%rsp)
  402a0e:	48 c7 c1 e9 9d 00 00 	mov    $0x9de9,%rcx
  402a15:	e8 0e 28 00 00       	callq  405228 <__afl_maybe_log>
  402a1a:	48 8b 44 24 10       	mov    0x10(%rsp),%rax
  402a1f:	48 8b 4c 24 08       	mov    0x8(%rsp),%rcx
  402a24:	48 8b 14 24          	mov    (%rsp),%rdx
  402a28:	48 8d a4 24 98 00 00 	lea    0x98(%rsp),%rsp
  402a2f:	00 
  402a30:	b8 ff 00 00 00       	mov    $0xff,%eax
  402a35:	b9 08 00 00 00       	mov    $0x8,%ecx
  402a3a:	8a 95 0d ff ff ff    	mov    -0xf3(%rbp),%dl
  402a40:	88 95 af fd ff ff    	mov    %dl,-0x251(%rbp)
  402a46:	c6 85 ae fd ff ff 03 	movb   $0x3,-0x252(%rbp)
  402a4d:	0f be b5 af fd ff ff 	movsbl -0x251(%rbp),%esi
  402a54:	0f be bd ae fd ff ff 	movsbl -0x252(%rbp),%edi
  402a5b:	89 8d 38 fd ff ff    	mov    %ecx,-0x2c8(%rbp)
  402a61:	89 f9                	mov    %edi,%ecx
  402a63:	d3 e6                	shl    %cl,%esi
  402a65:	81 e6 ff 00 00 00    	and    $0xff,%esi
  402a6b:	0f be bd af fd ff ff 	movsbl -0x251(%rbp),%edi
  402a72:	44 0f be 85 ae fd ff 	movsbl -0x252(%rbp),%r8d
  402a79:	ff 
  402a7a:	44 8b 8d 38 fd ff ff 	mov    -0x2c8(%rbp),%r9d
  402a81:	45 29 c1             	sub    %r8d,%r9d
  402a84:	44 89 c9             	mov    %r9d,%ecx
  402a87:	d3 ff                	sar    %cl,%edi
  402a89:	81 e7 ff 00 00 00    	and    $0xff,%edi
  402a8f:	0f be 8d ae fd ff ff 	movsbl -0x252(%rbp),%ecx
  402a96:	d3 e0                	shl    %cl,%eax
  402a98:	25 ff 00 00 00       	and    $0xff,%eax
  402a9d:	83 f0 ff             	xor    $0xffffffff,%eax
  402aa0:	21 c7                	and    %eax,%edi
  402aa2:	09 fe                	or     %edi,%esi
  402aa4:	81 fe da 00 00 00    	cmp    $0xda,%esi
  402aaa:	0f 8f c6 17 00 00    	jg     404276 <main+0x3746>
  402ab0:	48 8d a4 24 68 ff ff 	lea    -0x98(%rsp),%rsp
  402ab7:	ff 
  402ab8:	48 89 14 24          	mov    %rdx,(%rsp)
  402abc:	48 89 4c 24 08       	mov    %rcx,0x8(%rsp)
  402ac1:	48 89 44 24 10       	mov    %rax,0x10(%rsp)
  402ac6:	48 c7 c1 fe 62 00 00 	mov    $0x62fe,%rcx
  402acd:	e8 56 27 00 00       	callq  405228 <__afl_maybe_log>
  402ad2:	48 8b 44 24 10       	mov    0x10(%rsp),%rax
  402ad7:	48 8b 4c 24 08       	mov    0x8(%rsp),%rcx
  402adc:	48 8b 14 24          	mov    (%rsp),%rdx
  402ae0:	48 8d a4 24 98 00 00 	lea    0x98(%rsp),%rsp
  402ae7:	00 
  402ae8:	8a 85 be fe ff ff    	mov    -0x142(%rbp),%al
  402aee:	88 85 af fd ff ff    	mov    %al,-0x251(%rbp)
  402af4:	c6 85 ae fd ff ff 04 	movb   $0x4,-0x252(%rbp)
  402afb:	0f be 8d af fd ff ff 	movsbl -0x251(%rbp),%ecx
  402b02:	0f be 95 ae fd ff ff 	movsbl -0x252(%rbp),%edx
  402b09:	89 8d 34 fd ff ff    	mov    %ecx,-0x2cc(%rbp)
  402b0f:	89 d1                	mov    %edx,%ecx
  402b11:	8b 95 34 fd ff ff    	mov    -0x2cc(%rbp),%edx
  402b17:	d3 fa                	sar    %cl,%edx
  402b19:	81 e2 ff 00 00 00    	and    $0xff,%edx
  402b1f:	83 fa 02             	cmp    $0x2,%edx
  402b22:	0f 8c 12 17 00 00    	jl     40423a <main+0x370a>
  402b28:	48 8d a4 24 68 ff ff 	lea    -0x98(%rsp),%rsp
  402b2f:	ff 
  402b30:	48 89 14 24          	mov    %rdx,(%rsp)
  402b34:	48 89 4c 24 08       	mov    %rcx,0x8(%rsp)
  402b39:	48 89 44 24 10       	mov    %rax,0x10(%rsp)
  402b3e:	48 c7 c1 c7 c1 00 00 	mov    $0xc1c7,%rcx
  402b45:	e8 de 26 00 00       	callq  405228 <__afl_maybe_log>
  402b4a:	48 8b 44 24 10       	mov    0x10(%rsp),%rax
  402b4f:	48 8b 4c 24 08       	mov    0x8(%rsp),%rcx
  402b54:	48 8b 14 24          	mov    (%rsp),%rdx
  402b58:	48 8d a4 24 98 00 00 	lea    0x98(%rsp),%rsp
  402b5f:	00 
  402b60:	8a 85 06 ff ff ff    	mov    -0xfa(%rbp),%al
  402b66:	88 85 af fd ff ff    	mov    %al,-0x251(%rbp)
  402b6c:	c6 85 ae fd ff ff 5b 	movb   $0x5b,-0x252(%rbp)
  402b73:	0f be 8d af fd ff ff 	movsbl -0x251(%rbp),%ecx
  402b7a:	0f be 95 ae fd ff ff 	movsbl -0x252(%rbp),%edx
  402b81:	21 d1                	and    %edx,%ecx
  402b83:	83 f9 5b             	cmp    $0x5b,%ecx
  402b86:	0f 85 72 16 00 00    	jne    4041fe <main+0x36ce>
  402b8c:	48 8d a4 24 68 ff ff 	lea    -0x98(%rsp),%rsp
  402b93:	ff 
  402b94:	48 89 14 24          	mov    %rdx,(%rsp)
  402b98:	48 89 4c 24 08       	mov    %rcx,0x8(%rsp)
  402b9d:	48 89 44 24 10       	mov    %rax,0x10(%rsp)
  402ba2:	48 c7 c1 56 9f 00 00 	mov    $0x9f56,%rcx
  402ba9:	e8 7a 26 00 00       	callq  405228 <__afl_maybe_log>
  402bae:	48 8b 44 24 10       	mov    0x10(%rsp),%rax
  402bb3:	48 8b 4c 24 08       	mov    0x8(%rsp),%rcx
  402bb8:	48 8b 14 24          	mov    (%rsp),%rdx
  402bbc:	48 8d a4 24 98 00 00 	lea    0x98(%rsp),%rsp
  402bc3:	00 
  402bc4:	8a 85 d1 fe ff ff    	mov    -0x12f(%rbp),%al
  402bca:	88 85 af fd ff ff    	mov    %al,-0x251(%rbp)
  402bd0:	c6 85 ae fd ff ff 02 	movb   $0x2,-0x252(%rbp)
  402bd7:	0f be 8d af fd ff ff 	movsbl -0x251(%rbp),%ecx
  402bde:	0f be 95 ae fd ff ff 	movsbl -0x252(%rbp),%edx
  402be5:	89 8d 30 fd ff ff    	mov    %ecx,-0x2d0(%rbp)
  402beb:	89 d1                	mov    %edx,%ecx
  402bed:	8b 95 30 fd ff ff    	mov    -0x2d0(%rbp),%edx
  402bf3:	d3 fa                	sar    %cl,%edx
  402bf5:	81 e2 ff 00 00 00    	and    $0xff,%edx
  402bfb:	83 fa 08             	cmp    $0x8,%edx
  402bfe:	0f 8e be 15 00 00    	jle    4041c2 <main+0x3692>
  402c04:	48 8d a4 24 68 ff ff 	lea    -0x98(%rsp),%rsp
  402c0b:	ff 
  402c0c:	48 89 14 24          	mov    %rdx,(%rsp)
  402c10:	48 89 4c 24 08       	mov    %rcx,0x8(%rsp)
  402c15:	48 89 44 24 10       	mov    %rax,0x10(%rsp)
  402c1a:	48 c7 c1 46 86 00 00 	mov    $0x8646,%rcx
  402c21:	e8 02 26 00 00       	callq  405228 <__afl_maybe_log>
  402c26:	48 8b 44 24 10       	mov    0x10(%rsp),%rax
  402c2b:	48 8b 4c 24 08       	mov    0x8(%rsp),%rcx
  402c30:	48 8b 14 24          	mov    (%rsp),%rdx
  402c34:	48 8d a4 24 98 00 00 	lea    0x98(%rsp),%rsp
  402c3b:	00 
  402c3c:	8a 85 e7 fe ff ff    	mov    -0x119(%rbp),%al
  402c42:	88 85 af fd ff ff    	mov    %al,-0x251(%rbp)
  402c48:	c6 85 ae fd ff ff 02 	movb   $0x2,-0x252(%rbp)
  402c4f:	0f be 8d af fd ff ff 	movsbl -0x251(%rbp),%ecx
  402c56:	0f be 95 ae fd ff ff 	movsbl -0x252(%rbp),%edx
  402c5d:	89 8d 2c fd ff ff    	mov    %ecx,-0x2d4(%rbp)
  402c63:	89 d1                	mov    %edx,%ecx
  402c65:	8b 95 2c fd ff ff    	mov    -0x2d4(%rbp),%edx
  402c6b:	d3 e2                	shl    %cl,%edx
  402c6d:	81 e2 ff 00 00 00    	and    $0xff,%edx
  402c73:	81 fa 8c 00 00 00    	cmp    $0x8c,%edx
  402c79:	0f 8f 07 15 00 00    	jg     404186 <main+0x3656>
  402c7f:	90                   	nop
  402c80:	48 8d a4 24 68 ff ff 	lea    -0x98(%rsp),%rsp
  402c87:	ff 
  402c88:	48 89 14 24          	mov    %rdx,(%rsp)
  402c8c:	48 89 4c 24 08       	mov    %rcx,0x8(%rsp)
  402c91:	48 89 44 24 10       	mov    %rax,0x10(%rsp)
  402c96:	48 c7 c1 fc 7d 00 00 	mov    $0x7dfc,%rcx
  402c9d:	e8 86 25 00 00       	callq  405228 <__afl_maybe_log>
  402ca2:	48 8b 44 24 10       	mov    0x10(%rsp),%rax
  402ca7:	48 8b 4c 24 08       	mov    0x8(%rsp),%rcx
  402cac:	48 8b 14 24          	mov    (%rsp),%rdx
  402cb0:	48 8d a4 24 98 00 00 	lea    0x98(%rsp),%rsp
  402cb7:	00 
  402cb8:	8a 85 f6 fe ff ff    	mov    -0x10a(%rbp),%al
  402cbe:	88 85 af fd ff ff    	mov    %al,-0x251(%rbp)
  402cc4:	c6 85 ae fd ff ff 05 	movb   $0x5,-0x252(%rbp)
  402ccb:	0f be 8d af fd ff ff 	movsbl -0x251(%rbp),%ecx
  402cd2:	0f be 95 ae fd ff ff 	movsbl -0x252(%rbp),%edx
  402cd9:	89 8d 28 fd ff ff    	mov    %ecx,-0x2d8(%rbp)
  402cdf:	89 d1                	mov    %edx,%ecx
  402ce1:	8b 95 28 fd ff ff    	mov    -0x2d8(%rbp),%edx
  402ce7:	d3 fa                	sar    %cl,%edx
  402ce9:	81 e2 ff 00 00 00    	and    $0xff,%edx
  402cef:	83 fa 02             	cmp    $0x2,%edx
  402cf2:	0f 8c 52 14 00 00    	jl     40414a <main+0x361a>
  402cf8:	48 8d a4 24 68 ff ff 	lea    -0x98(%rsp),%rsp
  402cff:	ff 
  402d00:	48 89 14 24          	mov    %rdx,(%rsp)
  402d04:	48 89 4c 24 08       	mov    %rcx,0x8(%rsp)
  402d09:	48 89 44 24 10       	mov    %rax,0x10(%rsp)
  402d0e:	48 c7 c1 48 a5 00 00 	mov    $0xa548,%rcx
  402d15:	e8 0e 25 00 00       	callq  405228 <__afl_maybe_log>
  402d1a:	48 8b 44 24 10       	mov    0x10(%rsp),%rax
  402d1f:	48 8b 4c 24 08       	mov    0x8(%rsp),%rcx
  402d24:	48 8b 14 24          	mov    (%rsp),%rdx
  402d28:	48 8d a4 24 98 00 00 	lea    0x98(%rsp),%rsp
  402d2f:	00 
  402d30:	b8 ff 00 00 00       	mov    $0xff,%eax
  402d35:	b9 08 00 00 00       	mov    $0x8,%ecx
  402d3a:	8a 95 b4 fe ff ff    	mov    -0x14c(%rbp),%dl
  402d40:	88 95 af fd ff ff    	mov    %dl,-0x251(%rbp)
  402d46:	c6 85 ae fd ff ff 04 	movb   $0x4,-0x252(%rbp)
  402d4d:	0f be b5 af fd ff ff 	movsbl -0x251(%rbp),%esi
  402d54:	0f be bd ae fd ff ff 	movsbl -0x252(%rbp),%edi
  402d5b:	89 8d 24 fd ff ff    	mov    %ecx,-0x2dc(%rbp)
  402d61:	89 f9                	mov    %edi,%ecx
  402d63:	d3 e6                	shl    %cl,%esi
  402d65:	81 e6 ff 00 00 00    	and    $0xff,%esi
  402d6b:	0f be bd af fd ff ff 	movsbl -0x251(%rbp),%edi
  402d72:	44 0f be 85 ae fd ff 	movsbl -0x252(%rbp),%r8d
  402d79:	ff 
  402d7a:	44 8b 8d 24 fd ff ff 	mov    -0x2dc(%rbp),%r9d
  402d81:	45 29 c1             	sub    %r8d,%r9d
  402d84:	44 89 c9             	mov    %r9d,%ecx
  402d87:	d3 ff                	sar    %cl,%edi
  402d89:	81 e7 ff 00 00 00    	and    $0xff,%edi
  402d8f:	0f be 8d ae fd ff ff 	movsbl -0x252(%rbp),%ecx
  402d96:	d3 e0                	shl    %cl,%eax
  402d98:	25 ff 00 00 00       	and    $0xff,%eax
  402d9d:	83 f0 ff             	xor    $0xffffffff,%eax
  402da0:	21 c7                	and    %eax,%edi
  402da2:	09 fe                	or     %edi,%esi
  402da4:	83 fe 6a             	cmp    $0x6a,%esi
  402da7:	0f 8c 61 13 00 00    	jl     40410e <main+0x35de>
  402dad:	0f 1f 00             	nopl   (%rax)
  402db0:	48 8d a4 24 68 ff ff 	lea    -0x98(%rsp),%rsp
  402db7:	ff 
  402db8:	48 89 14 24          	mov    %rdx,(%rsp)
  402dbc:	48 89 4c 24 08       	mov    %rcx,0x8(%rsp)
  402dc1:	48 89 44 24 10       	mov    %rax,0x10(%rsp)
  402dc6:	48 c7 c1 d1 e0 00 00 	mov    $0xe0d1,%rcx
  402dcd:	e8 56 24 00 00       	callq  405228 <__afl_maybe_log>
  402dd2:	48 8b 44 24 10       	mov    0x10(%rsp),%rax
  402dd7:	48 8b 4c 24 08       	mov    0x8(%rsp),%rcx
  402ddc:	48 8b 14 24          	mov    (%rsp),%rdx
  402de0:	48 8d a4 24 98 00 00 	lea    0x98(%rsp),%rsp
  402de7:	00 
  402de8:	8a 85 b0 fe ff ff    	mov    -0x150(%rbp),%al
  402dee:	88 85 af fd ff ff    	mov    %al,-0x251(%rbp)
  402df4:	c6 85 ae fd ff ff 00 	movb   $0x0,-0x252(%rbp)
  402dfb:	0f be 8d af fd ff ff 	movsbl -0x251(%rbp),%ecx
  402e02:	83 f1 ff             	xor    $0xffffffff,%ecx
  402e05:	81 e1 ff 00 00 00    	and    $0xff,%ecx
  402e0b:	81 f9 f9 00 00 00    	cmp    $0xf9,%ecx
  402e11:	0f 8d bb 12 00 00    	jge    4040d2 <main+0x35a2>
  402e17:	90                   	nop
  402e18:	48 8d a4 24 68 ff ff 	lea    -0x98(%rsp),%rsp
  402e1f:	ff 
  402e20:	48 89 14 24          	mov    %rdx,(%rsp)
  402e24:	48 89 4c 24 08       	mov    %rcx,0x8(%rsp)
  402e29:	48 89 44 24 10       	mov    %rax,0x10(%rsp)
  402e2e:	48 c7 c1 39 33 00 00 	mov    $0x3339,%rcx
  402e35:	e8 ee 23 00 00       	callq  405228 <__afl_maybe_log>
  402e3a:	48 8b 44 24 10       	mov    0x10(%rsp),%rax
  402e3f:	48 8b 4c 24 08       	mov    0x8(%rsp),%rcx
  402e44:	48 8b 14 24          	mov    (%rsp),%rdx
  402e48:	48 8d a4 24 98 00 00 	lea    0x98(%rsp),%rsp
  402e4f:	00 
  402e50:	b8 ff 00 00 00       	mov    $0xff,%eax
  402e55:	b9 08 00 00 00       	mov    $0x8,%ecx
  402e5a:	8a 95 0f ff ff ff    	mov    -0xf1(%rbp),%dl
  402e60:	88 95 af fd ff ff    	mov    %dl,-0x251(%rbp)
  402e66:	c6 85 ae fd ff ff 06 	movb   $0x6,-0x252(%rbp)
  402e6d:	0f be b5 af fd ff ff 	movsbl -0x251(%rbp),%esi
  402e74:	0f be bd ae fd ff ff 	movsbl -0x252(%rbp),%edi
  402e7b:	89 8d 20 fd ff ff    	mov    %ecx,-0x2e0(%rbp)
  402e81:	89 f9                	mov    %edi,%ecx
  402e83:	d3 e6                	shl    %cl,%esi
  402e85:	81 e6 ff 00 00 00    	and    $0xff,%esi
  402e8b:	0f be bd af fd ff ff 	movsbl -0x251(%rbp),%edi
  402e92:	44 0f be 85 ae fd ff 	movsbl -0x252(%rbp),%r8d
  402e99:	ff 
  402e9a:	44 8b 8d 20 fd ff ff 	mov    -0x2e0(%rbp),%r9d
  402ea1:	45 29 c1             	sub    %r8d,%r9d
  402ea4:	44 89 c9             	mov    %r9d,%ecx
  402ea7:	d3 ff                	sar    %cl,%edi
  402ea9:	81 e7 ff 00 00 00    	and    $0xff,%edi
  402eaf:	0f be 8d ae fd ff ff 	movsbl -0x252(%rbp),%ecx
  402eb6:	d3 e0                	shl    %cl,%eax
  402eb8:	25 ff 00 00 00       	and    $0xff,%eax
  402ebd:	83 f0 ff             	xor    $0xffffffff,%eax
  402ec0:	21 c7                	and    %eax,%edi
  402ec2:	09 fe                	or     %edi,%esi
  402ec4:	81 fe 8b 00 00 00    	cmp    $0x8b,%esi
  402eca:	0f 8d c6 11 00 00    	jge    404096 <main+0x3566>
  402ed0:	48 8d a4 24 68 ff ff 	lea    -0x98(%rsp),%rsp
  402ed7:	ff 
  402ed8:	48 89 14 24          	mov    %rdx,(%rsp)
  402edc:	48 89 4c 24 08       	mov    %rcx,0x8(%rsp)
  402ee1:	48 89 44 24 10       	mov    %rax,0x10(%rsp)
  402ee6:	48 c7 c1 2c 02 00 00 	mov    $0x22c,%rcx
  402eed:	e8 36 23 00 00       	callq  405228 <__afl_maybe_log>
  402ef2:	48 8b 44 24 10       	mov    0x10(%rsp),%rax
  402ef7:	48 8b 4c 24 08       	mov    0x8(%rsp),%rcx
  402efc:	48 8b 14 24          	mov    (%rsp),%rdx
  402f00:	48 8d a4 24 98 00 00 	lea    0x98(%rsp),%rsp
  402f07:	00 
  402f08:	8a 85 dd fe ff ff    	mov    -0x123(%rbp),%al
  402f0e:	88 85 af fd ff ff    	mov    %al,-0x251(%rbp)
  402f14:	c6 85 ae fd ff ff 06 	movb   $0x6,-0x252(%rbp)
  402f1b:	0f be 8d af fd ff ff 	movsbl -0x251(%rbp),%ecx
  402f22:	0f be 95 ae fd ff ff 	movsbl -0x252(%rbp),%edx
  402f29:	89 8d 1c fd ff ff    	mov    %ecx,-0x2e4(%rbp)
  402f2f:	89 d1                	mov    %edx,%ecx
  402f31:	8b 95 1c fd ff ff    	mov    -0x2e4(%rbp),%edx
  402f37:	d3 fa                	sar    %cl,%edx
  402f39:	81 e2 ff 00 00 00    	and    $0xff,%edx
  402f3f:	83 fa 7e             	cmp    $0x7e,%edx
  402f42:	0f 8f 12 11 00 00    	jg     40405a <main+0x352a>
  402f48:	48 8d a4 24 68 ff ff 	lea    -0x98(%rsp),%rsp
  402f4f:	ff 
  402f50:	48 89 14 24          	mov    %rdx,(%rsp)
  402f54:	48 89 4c 24 08       	mov    %rcx,0x8(%rsp)
  402f59:	48 89 44 24 10       	mov    %rax,0x10(%rsp)
  402f5e:	48 c7 c1 fc 92 00 00 	mov    $0x92fc,%rcx
  402f65:	e8 be 22 00 00       	callq  405228 <__afl_maybe_log>
  402f6a:	48 8b 44 24 10       	mov    0x10(%rsp),%rax
  402f6f:	48 8b 4c 24 08       	mov    0x8(%rsp),%rcx
  402f74:	48 8b 14 24          	mov    (%rsp),%rdx
  402f78:	48 8d a4 24 98 00 00 	lea    0x98(%rsp),%rsp
  402f7f:	00 
  402f80:	8a 85 fa fe ff ff    	mov    -0x106(%rbp),%al
  402f86:	88 85 af fd ff ff    	mov    %al,-0x251(%rbp)
  402f8c:	c6 85 ae fd ff ff 01 	movb   $0x1,-0x252(%rbp)
  402f93:	0f be 8d af fd ff ff 	movsbl -0x251(%rbp),%ecx
  402f9a:	0f be 95 ae fd ff ff 	movsbl -0x252(%rbp),%edx
  402fa1:	89 8d 18 fd ff ff    	mov    %ecx,-0x2e8(%rbp)
  402fa7:	89 d1                	mov    %edx,%ecx
  402fa9:	8b 95 18 fd ff ff    	mov    -0x2e8(%rbp),%edx
  402faf:	d3 fa                	sar    %cl,%edx
  402fb1:	81 e2 ff 00 00 00    	and    $0xff,%edx
  402fb7:	83 fa 3a             	cmp    $0x3a,%edx
  402fba:	0f 85 5e 10 00 00    	jne    40401e <main+0x34ee>
  402fc0:	48 8d a4 24 68 ff ff 	lea    -0x98(%rsp),%rsp
  402fc7:	ff 
  402fc8:	48 89 14 24          	mov    %rdx,(%rsp)
  402fcc:	48 89 4c 24 08       	mov    %rcx,0x8(%rsp)
  402fd1:	48 89 44 24 10       	mov    %rax,0x10(%rsp)
  402fd6:	48 c7 c1 62 67 00 00 	mov    $0x6762,%rcx
  402fdd:	e8 46 22 00 00       	callq  405228 <__afl_maybe_log>
  402fe2:	48 8b 44 24 10       	mov    0x10(%rsp),%rax
  402fe7:	48 8b 4c 24 08       	mov    0x8(%rsp),%rcx
  402fec:	48 8b 14 24          	mov    (%rsp),%rdx
  402ff0:	48 8d a4 24 98 00 00 	lea    0x98(%rsp),%rsp
  402ff7:	00 
  402ff8:	b8 ff 00 00 00       	mov    $0xff,%eax
  402ffd:	b9 08 00 00 00       	mov    $0x8,%ecx
  403002:	8a 95 c9 fe ff ff    	mov    -0x137(%rbp),%dl
  403008:	88 95 af fd ff ff    	mov    %dl,-0x251(%rbp)
  40300e:	c6 85 ae fd ff ff 07 	movb   $0x7,-0x252(%rbp)
  403015:	0f be b5 af fd ff ff 	movsbl -0x251(%rbp),%esi
  40301c:	0f be bd ae fd ff ff 	movsbl -0x252(%rbp),%edi
  403023:	89 8d 14 fd ff ff    	mov    %ecx,-0x2ec(%rbp)
  403029:	89 f9                	mov    %edi,%ecx
  40302b:	d3 e6                	shl    %cl,%esi
  40302d:	81 e6 ff 00 00 00    	and    $0xff,%esi
  403033:	0f be bd af fd ff ff 	movsbl -0x251(%rbp),%edi
  40303a:	44 0f be 85 ae fd ff 	movsbl -0x252(%rbp),%r8d
  403041:	ff 
  403042:	44 8b 8d 14 fd ff ff 	mov    -0x2ec(%rbp),%r9d
  403049:	45 29 c1             	sub    %r8d,%r9d
  40304c:	44 89 c9             	mov    %r9d,%ecx
  40304f:	d3 ff                	sar    %cl,%edi
  403051:	81 e7 ff 00 00 00    	and    $0xff,%edi
  403057:	0f be 8d ae fd ff ff 	movsbl -0x252(%rbp),%ecx
  40305e:	d3 e0                	shl    %cl,%eax
  403060:	25 ff 00 00 00       	and    $0xff,%eax
  403065:	83 f0 ff             	xor    $0xffffffff,%eax
  403068:	21 c7                	and    %eax,%edi
  40306a:	09 fe                	or     %edi,%esi
  40306c:	81 fe a0 00 00 00    	cmp    $0xa0,%esi
  403072:	0f 85 6a 0f 00 00    	jne    403fe2 <main+0x34b2>
  403078:	48 8d a4 24 68 ff ff 	lea    -0x98(%rsp),%rsp
  40307f:	ff 
  403080:	48 89 14 24          	mov    %rdx,(%rsp)
  403084:	48 89 4c 24 08       	mov    %rcx,0x8(%rsp)
  403089:	48 89 44 24 10       	mov    %rax,0x10(%rsp)
  40308e:	48 c7 c1 87 00 00 00 	mov    $0x87,%rcx
  403095:	e8 8e 21 00 00       	callq  405228 <__afl_maybe_log>
  40309a:	48 8b 44 24 10       	mov    0x10(%rsp),%rax
  40309f:	48 8b 4c 24 08       	mov    0x8(%rsp),%rcx
  4030a4:	48 8b 14 24          	mov    (%rsp),%rdx
  4030a8:	48 8d a4 24 98 00 00 	lea    0x98(%rsp),%rsp
  4030af:	00 
  4030b0:	8a 85 f5 fe ff ff    	mov    -0x10b(%rbp),%al
  4030b6:	88 85 af fd ff ff    	mov    %al,-0x251(%rbp)
  4030bc:	c6 85 ae fd ff ff 7e 	movb   $0x7e,-0x252(%rbp)
  4030c3:	0f be 8d af fd ff ff 	movsbl -0x251(%rbp),%ecx
  4030ca:	0f be 95 ae fd ff ff 	movsbl -0x252(%rbp),%edx
  4030d1:	31 d1                	xor    %edx,%ecx
  4030d3:	83 f9 70             	cmp    $0x70,%ecx
  4030d6:	0f 8d ca 0e 00 00    	jge    403fa6 <main+0x3476>
  4030dc:	48 8d a4 24 68 ff ff 	lea    -0x98(%rsp),%rsp
  4030e3:	ff 
  4030e4:	48 89 14 24          	mov    %rdx,(%rsp)
  4030e8:	48 89 4c 24 08       	mov    %rcx,0x8(%rsp)
  4030ed:	48 89 44 24 10       	mov    %rax,0x10(%rsp)
  4030f2:	48 c7 c1 4d 60 00 00 	mov    $0x604d,%rcx
  4030f9:	e8 2a 21 00 00       	callq  405228 <__afl_maybe_log>
  4030fe:	48 8b 44 24 10       	mov    0x10(%rsp),%rax
  403103:	48 8b 4c 24 08       	mov    0x8(%rsp),%rcx
  403108:	48 8b 14 24          	mov    (%rsp),%rdx
  40310c:	48 8d a4 24 98 00 00 	lea    0x98(%rsp),%rsp
  403113:	00 
  403114:	8a 85 12 ff ff ff    	mov    -0xee(%rbp),%al
  40311a:	88 85 af fd ff ff    	mov    %al,-0x251(%rbp)
  403120:	c6 85 ae fd ff ff 01 	movb   $0x1,-0x252(%rbp)
  403127:	0f be 8d af fd ff ff 	movsbl -0x251(%rbp),%ecx
  40312e:	0f be 95 ae fd ff ff 	movsbl -0x252(%rbp),%edx
  403135:	89 8d 10 fd ff ff    	mov    %ecx,-0x2f0(%rbp)
  40313b:	89 d1                	mov    %edx,%ecx
  40313d:	8b 95 10 fd ff ff    	mov    -0x2f0(%rbp),%edx
  403143:	d3 e2                	shl    %cl,%edx
  403145:	81 e2 ff 00 00 00    	and    $0xff,%edx
  40314b:	81 fa c3 00 00 00    	cmp    $0xc3,%edx
  403151:	0f 84 13 0e 00 00    	je     403f6a <main+0x343a>
  403157:	90                   	nop
  403158:	48 8d a4 24 68 ff ff 	lea    -0x98(%rsp),%rsp
  40315f:	ff 
  403160:	48 89 14 24          	mov    %rdx,(%rsp)
  403164:	48 89 4c 24 08       	mov    %rcx,0x8(%rsp)
  403169:	48 89 44 24 10       	mov    %rax,0x10(%rsp)
  40316e:	48 c7 c1 3f 36 00 00 	mov    $0x363f,%rcx
  403175:	e8 ae 20 00 00       	callq  405228 <__afl_maybe_log>
  40317a:	48 8b 44 24 10       	mov    0x10(%rsp),%rax
  40317f:	48 8b 4c 24 08       	mov    0x8(%rsp),%rcx
  403184:	48 8b 14 24          	mov    (%rsp),%rdx
  403188:	48 8d a4 24 98 00 00 	lea    0x98(%rsp),%rsp
  40318f:	00 
  403190:	8a 85 fd fe ff ff    	mov    -0x103(%rbp),%al
  403196:	88 85 af fd ff ff    	mov    %al,-0x251(%rbp)
  40319c:	c6 85 ae fd ff ff 51 	movb   $0x51,-0x252(%rbp)
  4031a3:	0f be 8d af fd ff ff 	movsbl -0x251(%rbp),%ecx
  4031aa:	0f be 95 ae fd ff ff 	movsbl -0x252(%rbp),%edx
  4031b1:	31 d1                	xor    %edx,%ecx
  4031b3:	83 f9 23             	cmp    $0x23,%ecx
  4031b6:	0f 8e 72 0d 00 00    	jle    403f2e <main+0x33fe>
  4031bc:	48 8d a4 24 68 ff ff 	lea    -0x98(%rsp),%rsp
  4031c3:	ff 
  4031c4:	48 89 14 24          	mov    %rdx,(%rsp)
  4031c8:	48 89 4c 24 08       	mov    %rcx,0x8(%rsp)
  4031cd:	48 89 44 24 10       	mov    %rax,0x10(%rsp)
  4031d2:	48 c7 c1 91 1d 00 00 	mov    $0x1d91,%rcx
  4031d9:	e8 4a 20 00 00       	callq  405228 <__afl_maybe_log>
  4031de:	48 8b 44 24 10       	mov    0x10(%rsp),%rax
  4031e3:	48 8b 4c 24 08       	mov    0x8(%rsp),%rcx
  4031e8:	48 8b 14 24          	mov    (%rsp),%rdx
  4031ec:	48 8d a4 24 98 00 00 	lea    0x98(%rsp),%rsp
  4031f3:	00 
  4031f4:	8a 85 c3 fe ff ff    	mov    -0x13d(%rbp),%al
  4031fa:	88 85 af fd ff ff    	mov    %al,-0x251(%rbp)
  403200:	c6 85 ae fd ff ff 18 	movb   $0x18,-0x252(%rbp)
  403207:	0f be 8d af fd ff ff 	movsbl -0x251(%rbp),%ecx
  40320e:	0f be 95 ae fd ff ff 	movsbl -0x252(%rbp),%edx
  403215:	09 d1                	or     %edx,%ecx
  403217:	83 f9 5b             	cmp    $0x5b,%ecx
  40321a:	0f 85 d2 0c 00 00    	jne    403ef2 <main+0x33c2>
  403220:	48 8d a4 24 68 ff ff 	lea    -0x98(%rsp),%rsp
  403227:	ff 
  403228:	48 89 14 24          	mov    %rdx,(%rsp)
  40322c:	48 89 4c 24 08       	mov    %rcx,0x8(%rsp)
  403231:	48 89 44 24 10       	mov    %rax,0x10(%rsp)
  403236:	48 c7 c1 17 c6 00 00 	mov    $0xc617,%rcx
  40323d:	e8 e6 1f 00 00       	callq  405228 <__afl_maybe_log>
  403242:	48 8b 44 24 10       	mov    0x10(%rsp),%rax
  403247:	48 8b 4c 24 08       	mov    0x8(%rsp),%rcx
  40324c:	48 8b 14 24          	mov    (%rsp),%rdx
  403250:	48 8d a4 24 98 00 00 	lea    0x98(%rsp),%rsp
  403257:	00 
  403258:	8a 85 bf fe ff ff    	mov    -0x141(%rbp),%al
  40325e:	88 85 af fd ff ff    	mov    %al,-0x251(%rbp)
  403264:	c6 85 ae fd ff ff 00 	movb   $0x0,-0x252(%rbp)
  40326b:	0f be 8d af fd ff ff 	movsbl -0x251(%rbp),%ecx
  403272:	83 f1 ff             	xor    $0xffffffff,%ecx
  403275:	81 e1 ff 00 00 00    	and    $0xff,%ecx
  40327b:	83 f9 77             	cmp    $0x77,%ecx
  40327e:	0f 84 32 0c 00 00    	je     403eb6 <main+0x3386>
  403284:	48 8d a4 24 68 ff ff 	lea    -0x98(%rsp),%rsp
  40328b:	ff 
  40328c:	48 89 14 24          	mov    %rdx,(%rsp)
  403290:	48 89 4c 24 08       	mov    %rcx,0x8(%rsp)
  403295:	48 89 44 24 10       	mov    %rax,0x10(%rsp)
  40329a:	48 c7 c1 e9 c7 00 00 	mov    $0xc7e9,%rcx
  4032a1:	e8 82 1f 00 00       	callq  405228 <__afl_maybe_log>
  4032a6:	48 8b 44 24 10       	mov    0x10(%rsp),%rax
  4032ab:	48 8b 4c 24 08       	mov    0x8(%rsp),%rcx
  4032b0:	48 8b 14 24          	mov    (%rsp),%rdx
  4032b4:	48 8d a4 24 98 00 00 	lea    0x98(%rsp),%rsp
  4032bb:	00 
  4032bc:	8a 85 db fe ff ff    	mov    -0x125(%rbp),%al
  4032c2:	88 85 af fd ff ff    	mov    %al,-0x251(%rbp)
  4032c8:	c6 85 ae fd ff ff 2d 	movb   $0x2d,-0x252(%rbp)
  4032cf:	0f be 8d af fd ff ff 	movsbl -0x251(%rbp),%ecx
  4032d6:	0f be 95 ae fd ff ff 	movsbl -0x252(%rbp),%edx
  4032dd:	09 d1                	or     %edx,%ecx
  4032df:	83 f9 08             	cmp    $0x8,%ecx
  4032e2:	0f 8c 92 0b 00 00    	jl     403e7a <main+0x334a>
  4032e8:	48 8d a4 24 68 ff ff 	lea    -0x98(%rsp),%rsp
  4032ef:	ff 
  4032f0:	48 89 14 24          	mov    %rdx,(%rsp)
  4032f4:	48 89 4c 24 08       	mov    %rcx,0x8(%rsp)
  4032f9:	48 89 44 24 10       	mov    %rax,0x10(%rsp)
  4032fe:	48 c7 c1 7b c1 00 00 	mov    $0xc17b,%rcx
  403305:	e8 1e 1f 00 00       	callq  405228 <__afl_maybe_log>
  40330a:	48 8b 44 24 10       	mov    0x10(%rsp),%rax
  40330f:	48 8b 4c 24 08       	mov    0x8(%rsp),%rcx
  403314:	48 8b 14 24          	mov    (%rsp),%rdx
  403318:	48 8d a4 24 98 00 00 	lea    0x98(%rsp),%rsp
  40331f:	00 
  403320:	8a 85 e2 fe ff ff    	mov    -0x11e(%rbp),%al
  403326:	88 85 af fd ff ff    	mov    %al,-0x251(%rbp)
  40332c:	c6 85 ae fd ff ff 6a 	movb   $0x6a,-0x252(%rbp)
  403333:	0f be 8d af fd ff ff 	movsbl -0x251(%rbp),%ecx
  40333a:	0f be 95 ae fd ff ff 	movsbl -0x252(%rbp),%edx
  403341:	21 d1                	and    %edx,%ecx
  403343:	83 f9 68             	cmp    $0x68,%ecx
  403346:	0f 8c f2 0a 00 00    	jl     403e3e <main+0x330e>
  40334c:	48 8d a4 24 68 ff ff 	lea    -0x98(%rsp),%rsp
  403353:	ff 
  403354:	48 89 14 24          	mov    %rdx,(%rsp)
  403358:	48 89 4c 24 08       	mov    %rcx,0x8(%rsp)
  40335d:	48 89 44 24 10       	mov    %rax,0x10(%rsp)
  403362:	48 c7 c1 b8 07 00 00 	mov    $0x7b8,%rcx
  403369:	e8 ba 1e 00 00       	callq  405228 <__afl_maybe_log>
  40336e:	48 8b 44 24 10       	mov    0x10(%rsp),%rax
  403373:	48 8b 4c 24 08       	mov    0x8(%rsp),%rcx
  403378:	48 8b 14 24          	mov    (%rsp),%rdx
  40337c:	48 8d a4 24 98 00 00 	lea    0x98(%rsp),%rsp
  403383:	00 
  403384:	8a 85 ff fe ff ff    	mov    -0x101(%rbp),%al
  40338a:	88 85 af fd ff ff    	mov    %al,-0x251(%rbp)
  403390:	c6 85 ae fd ff ff 14 	movb   $0x14,-0x252(%rbp)
  403397:	0f be 8d af fd ff ff 	movsbl -0x251(%rbp),%ecx
  40339e:	0f be 95 ae fd ff ff 	movsbl -0x252(%rbp),%edx
  4033a5:	31 d1                	xor    %edx,%ecx
  4033a7:	83 f9 10             	cmp    $0x10,%ecx
  4033aa:	0f 8e 52 0a 00 00    	jle    403e02 <main+0x32d2>
  4033b0:	48 8d a4 24 68 ff ff 	lea    -0x98(%rsp),%rsp
  4033b7:	ff 
  4033b8:	48 89 14 24          	mov    %rdx,(%rsp)
  4033bc:	48 89 4c 24 08       	mov    %rcx,0x8(%rsp)
  4033c1:	48 89 44 24 10       	mov    %rax,0x10(%rsp)
  4033c6:	48 c7 c1 57 ca 00 00 	mov    $0xca57,%rcx
  4033cd:	e8 56 1e 00 00       	callq  405228 <__afl_maybe_log>
  4033d2:	48 8b 44 24 10       	mov    0x10(%rsp),%rax
  4033d7:	48 8b 4c 24 08       	mov    0x8(%rsp),%rcx
  4033dc:	48 8b 14 24          	mov    (%rsp),%rdx
  4033e0:	48 8d a4 24 98 00 00 	lea    0x98(%rsp),%rsp
  4033e7:	00 
  4033e8:	8a 85 cc fe ff ff    	mov    -0x134(%rbp),%al
  4033ee:	88 85 af fd ff ff    	mov    %al,-0x251(%rbp)
  4033f4:	c6 85 ae fd ff ff 04 	movb   $0x4,-0x252(%rbp)
  4033fb:	0f be 8d af fd ff ff 	movsbl -0x251(%rbp),%ecx
  403402:	0f be 95 ae fd ff ff 	movsbl -0x252(%rbp),%edx
  403409:	31 d1                	xor    %edx,%ecx
  40340b:	83 f9 51             	cmp    $0x51,%ecx
  40340e:	0f 8c b2 09 00 00    	jl     403dc6 <main+0x3296>
  403414:	48 8d a4 24 68 ff ff 	lea    -0x98(%rsp),%rsp
  40341b:	ff 
  40341c:	48 89 14 24          	mov    %rdx,(%rsp)
  403420:	48 89 4c 24 08       	mov    %rcx,0x8(%rsp)
  403425:	48 89 44 24 10       	mov    %rax,0x10(%rsp)
  40342a:	48 c7 c1 b8 1f 00 00 	mov    $0x1fb8,%rcx
  403431:	e8 f2 1d 00 00       	callq  405228 <__afl_maybe_log>
  403436:	48 8b 44 24 10       	mov    0x10(%rsp),%rax
  40343b:	48 8b 4c 24 08       	mov    0x8(%rsp),%rcx
  403440:	48 8b 14 24          	mov    (%rsp),%rdx
  403444:	48 8d a4 24 98 00 00 	lea    0x98(%rsp),%rsp
  40344b:	00 
  40344c:	8a 85 d7 fe ff ff    	mov    -0x129(%rbp),%al
  403452:	88 85 af fd ff ff    	mov    %al,-0x251(%rbp)
  403458:	c6 85 ae fd ff ff 03 	movb   $0x3,-0x252(%rbp)
  40345f:	0f be 8d af fd ff ff 	movsbl -0x251(%rbp),%ecx
  403466:	0f be 95 ae fd ff ff 	movsbl -0x252(%rbp),%edx
  40346d:	31 d1                	xor    %edx,%ecx
  40346f:	81 f9 f2 00 00 00    	cmp    $0xf2,%ecx
  403475:	0f 8d 0f 09 00 00    	jge    403d8a <main+0x325a>
  40347b:	90                   	nop
  40347c:	48 8d a4 24 68 ff ff 	lea    -0x98(%rsp),%rsp
  403483:	ff 
  403484:	48 89 14 24          	mov    %rdx,(%rsp)
  403488:	48 89 4c 24 08       	mov    %rcx,0x8(%rsp)
  40348d:	48 89 44 24 10       	mov    %rax,0x10(%rsp)
  403492:	48 c7 c1 7e 8d 00 00 	mov    $0x8d7e,%rcx
  403499:	e8 8a 1d 00 00       	callq  405228 <__afl_maybe_log>
  40349e:	48 8b 44 24 10       	mov    0x10(%rsp),%rax
  4034a3:	48 8b 4c 24 08       	mov    0x8(%rsp),%rcx
  4034a8:	48 8b 14 24          	mov    (%rsp),%rdx
  4034ac:	48 8d a4 24 98 00 00 	lea    0x98(%rsp),%rsp
  4034b3:	00 
  4034b4:	8a 85 bd fe ff ff    	mov    -0x143(%rbp),%al
  4034ba:	88 85 af fd ff ff    	mov    %al,-0x251(%rbp)
  4034c0:	c6 85 ae fd ff ff 2f 	movb   $0x2f,-0x252(%rbp)
  4034c7:	0f be 8d af fd ff ff 	movsbl -0x251(%rbp),%ecx
  4034ce:	0f be 95 ae fd ff ff 	movsbl -0x252(%rbp),%edx
  4034d5:	21 d1                	and    %edx,%ecx
  4034d7:	83 f9 11             	cmp    $0x11,%ecx
  4034da:	0f 8c 6e 08 00 00    	jl     403d4e <main+0x321e>
  4034e0:	48 8d a4 24 68 ff ff 	lea    -0x98(%rsp),%rsp
  4034e7:	ff 
  4034e8:	48 89 14 24          	mov    %rdx,(%rsp)
  4034ec:	48 89 4c 24 08       	mov    %rcx,0x8(%rsp)
  4034f1:	48 89 44 24 10       	mov    %rax,0x10(%rsp)
  4034f6:	48 c7 c1 af a0 00 00 	mov    $0xa0af,%rcx
  4034fd:	e8 26 1d 00 00       	callq  405228 <__afl_maybe_log>
  403502:	48 8b 44 24 10       	mov    0x10(%rsp),%rax
  403507:	48 8b 4c 24 08       	mov    0x8(%rsp),%rcx
  40350c:	48 8b 14 24          	mov    (%rsp),%rdx
  403510:	48 8d a4 24 98 00 00 	lea    0x98(%rsp),%rsp
  403517:	00 
  403518:	8a 85 de fe ff ff    	mov    -0x122(%rbp),%al
  40351e:	88 85 af fd ff ff    	mov    %al,-0x251(%rbp)
  403524:	c6 85 ae fd ff ff 00 	movb   $0x0,-0x252(%rbp)
  40352b:	0f be 8d af fd ff ff 	movsbl -0x251(%rbp),%ecx
  403532:	83 f1 ff             	xor    $0xffffffff,%ecx
  403535:	81 e1 ff 00 00 00    	and    $0xff,%ecx
  40353b:	81 f9 bc 00 00 00    	cmp    $0xbc,%ecx
  403541:	0f 8c cb 07 00 00    	jl     403d12 <main+0x31e2>
  403547:	90                   	nop
  403548:	48 8d a4 24 68 ff ff 	lea    -0x98(%rsp),%rsp
  40354f:	ff 
  403550:	48 89 14 24          	mov    %rdx,(%rsp)
  403554:	48 89 4c 24 08       	mov    %rcx,0x8(%rsp)
  403559:	48 89 44 24 10       	mov    %rax,0x10(%rsp)
  40355e:	48 c7 c1 48 26 00 00 	mov    $0x2648,%rcx
  403565:	e8 be 1c 00 00       	callq  405228 <__afl_maybe_log>
  40356a:	48 8b 44 24 10       	mov    0x10(%rsp),%rax
  40356f:	48 8b 4c 24 08       	mov    0x8(%rsp),%rcx
  403574:	48 8b 14 24          	mov    (%rsp),%rdx
  403578:	48 8d a4 24 98 00 00 	lea    0x98(%rsp),%rsp
  40357f:	00 
  403580:	8a 85 ec fe ff ff    	mov    -0x114(%rbp),%al
  403586:	88 85 af fd ff ff    	mov    %al,-0x251(%rbp)
  40358c:	c6 85 ae fd ff ff 00 	movb   $0x0,-0x252(%rbp)
  403593:	0f be 8d af fd ff ff 	movsbl -0x251(%rbp),%ecx
  40359a:	83 f1 ff             	xor    $0xffffffff,%ecx
  40359d:	81 e1 ff 00 00 00    	and    $0xff,%ecx
  4035a3:	83 f9 52             	cmp    $0x52,%ecx
  4035a6:	0f 8c 2a 07 00 00    	jl     403cd6 <main+0x31a6>
  4035ac:	48 8d a4 24 68 ff ff 	lea    -0x98(%rsp),%rsp
  4035b3:	ff 
  4035b4:	48 89 14 24          	mov    %rdx,(%rsp)
  4035b8:	48 89 4c 24 08       	mov    %rcx,0x8(%rsp)
  4035bd:	48 89 44 24 10       	mov    %rax,0x10(%rsp)
  4035c2:	48 c7 c1 23 16 00 00 	mov    $0x1623,%rcx
  4035c9:	e8 5a 1c 00 00       	callq  405228 <__afl_maybe_log>
  4035ce:	48 8b 44 24 10       	mov    0x10(%rsp),%rax
  4035d3:	48 8b 4c 24 08       	mov    0x8(%rsp),%rcx
  4035d8:	48 8b 14 24          	mov    (%rsp),%rdx
  4035dc:	48 8d a4 24 98 00 00 	lea    0x98(%rsp),%rsp
  4035e3:	00 
  4035e4:	8a 85 10 ff ff ff    	mov    -0xf0(%rbp),%al
  4035ea:	88 85 af fd ff ff    	mov    %al,-0x251(%rbp)
  4035f0:	c6 85 ae fd ff ff 3f 	movb   $0x3f,-0x252(%rbp)
  4035f7:	0f be 8d af fd ff ff 	movsbl -0x251(%rbp),%ecx
  4035fe:	0f be 95 ae fd ff ff 	movsbl -0x252(%rbp),%edx
  403605:	21 d1                	and    %edx,%ecx
  403607:	83 f9 35             	cmp    $0x35,%ecx
  40360a:	0f 8d 8a 06 00 00    	jge    403c9a <main+0x316a>
  403610:	48 8d a4 24 68 ff ff 	lea    -0x98(%rsp),%rsp
  403617:	ff 
  403618:	48 89 14 24          	mov    %rdx,(%rsp)
  40361c:	48 89 4c 24 08       	mov    %rcx,0x8(%rsp)
  403621:	48 89 44 24 10       	mov    %rax,0x10(%rsp)
  403626:	48 c7 c1 60 98 00 00 	mov    $0x9860,%rcx
  40362d:	e8 f6 1b 00 00       	callq  405228 <__afl_maybe_log>
  403632:	48 8b 44 24 10       	mov    0x10(%rsp),%rax
  403637:	48 8b 4c 24 08       	mov    0x8(%rsp),%rcx
  40363c:	48 8b 14 24          	mov    (%rsp),%rdx
  403640:	48 8d a4 24 98 00 00 	lea    0x98(%rsp),%rsp
  403647:	00 
  403648:	8a 85 fc fe ff ff    	mov    -0x104(%rbp),%al
  40364e:	88 85 af fd ff ff    	mov    %al,-0x251(%rbp)
  403654:	c6 85 ae fd ff ff 46 	movb   $0x46,-0x252(%rbp)
  40365b:	0f be 8d af fd ff ff 	movsbl -0x251(%rbp),%ecx
  403662:	0f be 95 ae fd ff ff 	movsbl -0x252(%rbp),%edx
  403669:	09 d1                	or     %edx,%ecx
  40366b:	81 f9 e4 00 00 00    	cmp    $0xe4,%ecx
  403671:	0f 8f e7 05 00 00    	jg     403c5e <main+0x312e>
  403677:	90                   	nop
  403678:	48 8d a4 24 68 ff ff 	lea    -0x98(%rsp),%rsp
  40367f:	ff 
  403680:	48 89 14 24          	mov    %rdx,(%rsp)
  403684:	48 89 4c 24 08       	mov    %rcx,0x8(%rsp)
  403689:	48 89 44 24 10       	mov    %rax,0x10(%rsp)
  40368e:	48 c7 c1 a3 18 00 00 	mov    $0x18a3,%rcx
  403695:	e8 8e 1b 00 00       	callq  405228 <__afl_maybe_log>
  40369a:	48 8b 44 24 10       	mov    0x10(%rsp),%rax
  40369f:	48 8b 4c 24 08       	mov    0x8(%rsp),%rcx
  4036a4:	48 8b 14 24          	mov    (%rsp),%rdx
  4036a8:	48 8d a4 24 98 00 00 	lea    0x98(%rsp),%rsp
  4036af:	00 
  4036b0:	b8 08 00 00 00       	mov    $0x8,%eax
  4036b5:	8a 8d d5 fe ff ff    	mov    -0x12b(%rbp),%cl
  4036bb:	88 8d af fd ff ff    	mov    %cl,-0x251(%rbp)
  4036c1:	c6 85 ae fd ff ff 03 	movb   $0x3,-0x252(%rbp)
  4036c8:	0f be 95 af fd ff ff 	movsbl -0x251(%rbp),%edx
  4036cf:	0f be 8d ae fd ff ff 	movsbl -0x252(%rbp),%ecx
  4036d6:	d3 fa                	sar    %cl,%edx
  4036d8:	81 e2 ff 00 00 00    	and    $0xff,%edx
  4036de:	0f be b5 af fd ff ff 	movsbl -0x251(%rbp),%esi
  4036e5:	0f be bd ae fd ff ff 	movsbl -0x252(%rbp),%edi
  4036ec:	29 f8                	sub    %edi,%eax
  4036ee:	89 c1                	mov    %eax,%ecx
  4036f0:	d3 e6                	shl    %cl,%esi
  4036f2:	81 e6 ff 00 00 00    	and    $0xff,%esi
  4036f8:	09 f2                	or     %esi,%edx
  4036fa:	83 fa 64             	cmp    $0x64,%edx
  4036fd:	0f 8c 1f 05 00 00    	jl     403c22 <main+0x30f2>
  403703:	90                   	nop
  403704:	48 8d a4 24 68 ff ff 	lea    -0x98(%rsp),%rsp
  40370b:	ff 
  40370c:	48 89 14 24          	mov    %rdx,(%rsp)
  403710:	48 89 4c 24 08       	mov    %rcx,0x8(%rsp)
  403715:	48 89 44 24 10       	mov    %rax,0x10(%rsp)
  40371a:	48 c7 c1 65 50 00 00 	mov    $0x5065,%rcx
  403721:	e8 02 1b 00 00       	callq  405228 <__afl_maybe_log>
  403726:	48 8b 44 24 10       	mov    0x10(%rsp),%rax
  40372b:	48 8b 4c 24 08       	mov    0x8(%rsp),%rcx
  403730:	48 8b 14 24          	mov    (%rsp),%rdx
  403734:	48 8d a4 24 98 00 00 	lea    0x98(%rsp),%rsp
  40373b:	00 
  40373c:	8a 85 d4 fe ff ff    	mov    -0x12c(%rbp),%al
  403742:	88 85 af fd ff ff    	mov    %al,-0x251(%rbp)
  403748:	c6 85 ae fd ff ff 02 	movb   $0x2,-0x252(%rbp)
  40374f:	0f be 8d af fd ff ff 	movsbl -0x251(%rbp),%ecx
  403756:	0f be 95 ae fd ff ff 	movsbl -0x252(%rbp),%edx
  40375d:	89 8d 0c fd ff ff    	mov    %ecx,-0x2f4(%rbp)
  403763:	89 d1                	mov    %edx,%ecx
  403765:	8b 95 0c fd ff ff    	mov    -0x2f4(%rbp),%edx
  40376b:	d3 e2                	shl    %cl,%edx
  40376d:	81 e2 ff 00 00 00    	and    $0xff,%edx
  403773:	83 fa 5a             	cmp    $0x5a,%edx
  403776:	0f 8f 6a 04 00 00    	jg     403be6 <main+0x30b6>
  40377c:	48 8d a4 24 68 ff ff 	lea    -0x98(%rsp),%rsp
  403783:	ff 
  403784:	48 89 14 24          	mov    %rdx,(%rsp)
  403788:	48 89 4c 24 08       	mov    %rcx,0x8(%rsp)
  40378d:	48 89 44 24 10       	mov    %rax,0x10(%rsp)
  403792:	48 c7 c1 7d 44 00 00 	mov    $0x447d,%rcx
  403799:	e8 8a 1a 00 00       	callq  405228 <__afl_maybe_log>
  40379e:	48 8b 44 24 10       	mov    0x10(%rsp),%rax
  4037a3:	48 8b 4c 24 08       	mov    0x8(%rsp),%rcx
  4037a8:	48 8b 14 24          	mov    (%rsp),%rdx
  4037ac:	48 8d a4 24 98 00 00 	lea    0x98(%rsp),%rsp
  4037b3:	00 
  4037b4:	8a 85 09 ff ff ff    	mov    -0xf7(%rbp),%al
  4037ba:	88 85 af fd ff ff    	mov    %al,-0x251(%rbp)
  4037c0:	c6 85 ae fd ff ff 65 	movb   $0x65,-0x252(%rbp)
  4037c7:	0f be 8d af fd ff ff 	movsbl -0x251(%rbp),%ecx
  4037ce:	0f be 95 ae fd ff ff 	movsbl -0x252(%rbp),%edx
  4037d5:	09 d1                	or     %edx,%ecx
  4037d7:	81 f9 8b 00 00 00    	cmp    $0x8b,%ecx
  4037dd:	0f 8f c7 03 00 00    	jg     403baa <main+0x307a>
  4037e3:	90                   	nop
  4037e4:	48 8d a4 24 68 ff ff 	lea    -0x98(%rsp),%rsp
  4037eb:	ff 
  4037ec:	48 89 14 24          	mov    %rdx,(%rsp)
  4037f0:	48 89 4c 24 08       	mov    %rcx,0x8(%rsp)
  4037f5:	48 89 44 24 10       	mov    %rax,0x10(%rsp)
  4037fa:	48 c7 c1 fc 23 00 00 	mov    $0x23fc,%rcx
  403801:	e8 22 1a 00 00       	callq  405228 <__afl_maybe_log>
  403806:	48 8b 44 24 10       	mov    0x10(%rsp),%rax
  40380b:	48 8b 4c 24 08       	mov    0x8(%rsp),%rcx
  403810:	48 8b 14 24          	mov    (%rsp),%rdx
  403814:	48 8d a4 24 98 00 00 	lea    0x98(%rsp),%rsp
  40381b:	00 
  40381c:	8a 85 d0 fe ff ff    	mov    -0x130(%rbp),%al
  403822:	88 85 af fd ff ff    	mov    %al,-0x251(%rbp)
  403828:	c6 85 ae fd ff ff 1c 	movb   $0x1c,-0x252(%rbp)
  40382f:	0f be 8d af fd ff ff 	movsbl -0x251(%rbp),%ecx
  403836:	0f be 95 ae fd ff ff 	movsbl -0x252(%rbp),%edx
  40383d:	09 d1                	or     %edx,%ecx
  40383f:	81 f9 b6 00 00 00    	cmp    $0xb6,%ecx
  403845:	0f 8f 23 03 00 00    	jg     403b6e <main+0x303e>
  40384b:	90                   	nop
  40384c:	48 8d a4 24 68 ff ff 	lea    -0x98(%rsp),%rsp
  403853:	ff 
  403854:	48 89 14 24          	mov    %rdx,(%rsp)
  403858:	48 89 4c 24 08       	mov    %rcx,0x8(%rsp)
  40385d:	48 89 44 24 10       	mov    %rax,0x10(%rsp)
  403862:	48 c7 c1 cc 5a 00 00 	mov    $0x5acc,%rcx
  403869:	e8 ba 19 00 00       	callq  405228 <__afl_maybe_log>
  40386e:	48 8b 44 24 10       	mov    0x10(%rsp),%rax
  403873:	48 8b 4c 24 08       	mov    0x8(%rsp),%rcx
  403878:	48 8b 14 24          	mov    (%rsp),%rdx
  40387c:	48 8d a4 24 98 00 00 	lea    0x98(%rsp),%rsp
  403883:	00 
  403884:	8a 85 b6 fe ff ff    	mov    -0x14a(%rbp),%al
  40388a:	88 85 af fd ff ff    	mov    %al,-0x251(%rbp)
  403890:	c6 85 ae fd ff ff 03 	movb   $0x3,-0x252(%rbp)
  403897:	0f be 8d af fd ff ff 	movsbl -0x251(%rbp),%ecx
  40389e:	0f be 95 ae fd ff ff 	movsbl -0x252(%rbp),%edx
  4038a5:	31 d1                	xor    %edx,%ecx
  4038a7:	81 f9 9a 00 00 00    	cmp    $0x9a,%ecx
  4038ad:	0f 84 7f 02 00 00    	je     403b32 <main+0x3002>
  4038b3:	90                   	nop
  4038b4:	48 8d a4 24 68 ff ff 	lea    -0x98(%rsp),%rsp
  4038bb:	ff 
  4038bc:	48 89 14 24          	mov    %rdx,(%rsp)
  4038c0:	48 89 4c 24 08       	mov    %rcx,0x8(%rsp)
  4038c5:	48 89 44 24 10       	mov    %rax,0x10(%rsp)
  4038ca:	48 c7 c1 9d e2 00 00 	mov    $0xe29d,%rcx
  4038d1:	e8 52 19 00 00       	callq  405228 <__afl_maybe_log>
  4038d6:	48 8b 44 24 10       	mov    0x10(%rsp),%rax
  4038db:	48 8b 4c 24 08       	mov    0x8(%rsp),%rcx
  4038e0:	48 8b 14 24          	mov    (%rsp),%rdx
  4038e4:	48 8d a4 24 98 00 00 	lea    0x98(%rsp),%rsp
  4038eb:	00 
  4038ec:	8a 85 da fe ff ff    	mov    -0x126(%rbp),%al
  4038f2:	88 85 af fd ff ff    	mov    %al,-0x251(%rbp)
  4038f8:	c6 85 ae fd ff ff 00 	movb   $0x0,-0x252(%rbp)
  4038ff:	0f be 8d af fd ff ff 	movsbl -0x251(%rbp),%ecx
  403906:	83 f1 ff             	xor    $0xffffffff,%ecx
  403909:	81 e1 ff 00 00 00    	and    $0xff,%ecx
  40390f:	81 f9 a7 00 00 00    	cmp    $0xa7,%ecx
  403915:	0f 85 db 01 00 00    	jne    403af6 <main+0x2fc6>
  40391b:	90                   	nop
  40391c:	48 8d a4 24 68 ff ff 	lea    -0x98(%rsp),%rsp
  403923:	ff 
  403924:	48 89 14 24          	mov    %rdx,(%rsp)
  403928:	48 89 4c 24 08       	mov    %rcx,0x8(%rsp)
  40392d:	48 89 44 24 10       	mov    %rax,0x10(%rsp)
  403932:	48 c7 c1 f2 71 00 00 	mov    $0x71f2,%rcx
  403939:	e8 ea 18 00 00       	callq  405228 <__afl_maybe_log>
  40393e:	48 8b 44 24 10       	mov    0x10(%rsp),%rax
  403943:	48 8b 4c 24 08       	mov    0x8(%rsp),%rcx
  403948:	48 8b 14 24          	mov    (%rsp),%rdx
  40394c:	48 8d a4 24 98 00 00 	lea    0x98(%rsp),%rsp
  403953:	00 
  403954:	8a 85 ea fe ff ff    	mov    -0x116(%rbp),%al
  40395a:	88 85 af fd ff ff    	mov    %al,-0x251(%rbp)
  403960:	c6 85 ae fd ff ff 48 	movb   $0x48,-0x252(%rbp)
  403967:	0f be 8d af fd ff ff 	movsbl -0x251(%rbp),%ecx
  40396e:	0f be 95 ae fd ff ff 	movsbl -0x252(%rbp),%edx
  403975:	09 d1                	or     %edx,%ecx
  403977:	83 f9 5d             	cmp    $0x5d,%ecx
  40397a:	0f 85 3a 01 00 00    	jne    403aba <main+0x2f8a>
  403980:	48 8d a4 24 68 ff ff 	lea    -0x98(%rsp),%rsp
  403987:	ff 
  403988:	48 89 14 24          	mov    %rdx,(%rsp)
  40398c:	48 89 4c 24 08       	mov    %rcx,0x8(%rsp)
  403991:	48 89 44 24 10       	mov    %rax,0x10(%rsp)
  403996:	48 c7 c1 f6 89 00 00 	mov    $0x89f6,%rcx
  40399d:	e8 86 18 00 00       	callq  405228 <__afl_maybe_log>
  4039a2:	48 8b 44 24 10       	mov    0x10(%rsp),%rax
  4039a7:	48 8b 4c 24 08       	mov    0x8(%rsp),%rcx
  4039ac:	48 8b 14 24          	mov    (%rsp),%rdx
  4039b0:	48 8d a4 24 98 00 00 	lea    0x98(%rsp),%rsp
  4039b7:	00 
  4039b8:	8a 85 d9 fe ff ff    	mov    -0x127(%rbp),%al
  4039be:	88 85 af fd ff ff    	mov    %al,-0x251(%rbp)
  4039c4:	c6 85 ae fd ff ff 78 	movb   $0x78,-0x252(%rbp)
  4039cb:	0f be 8d af fd ff ff 	movsbl -0x251(%rbp),%ecx
  4039d2:	0f be 95 ae fd ff ff 	movsbl -0x252(%rbp),%edx
  4039d9:	09 d1                	or     %edx,%ecx
  4039db:	83 f9 4c             	cmp    $0x4c,%ecx
  4039de:	0f 8c 9a 00 00 00    	jl     403a7e <main+0x2f4e>
  4039e4:	48 8d a4 24 68 ff ff 	lea    -0x98(%rsp),%rsp
  4039eb:	ff 
  4039ec:	48 89 14 24          	mov    %rdx,(%rsp)
  4039f0:	48 89 4c 24 08       	mov    %rcx,0x8(%rsp)
  4039f5:	48 89 44 24 10       	mov    %rax,0x10(%rsp)
  4039fa:	48 c7 c1 db eb 00 00 	mov    $0xebdb,%rcx
  403a01:	e8 22 18 00 00       	callq  405228 <__afl_maybe_log>
  403a06:	48 8b 44 24 10       	mov    0x10(%rsp),%rax
  403a0b:	48 8b 4c 24 08       	mov    0x8(%rsp),%rcx
  403a10:	48 8b 14 24          	mov    (%rsp),%rdx
  403a14:	48 8d a4 24 98 00 00 	lea    0x98(%rsp),%rsp
  403a1b:	00 
  403a1c:	48 8d bd b0 fd ff ff 	lea    -0x250(%rbp),%rdi
  403a23:	e8 28 cf ff ff       	callq  400950 <get_flag@plt>
  403a28:	48 bf c3 56 40 00 00 	movabs $0x4056c3,%rdi
  403a2f:	00 00 00 
  403a32:	48 8d b5 b0 fd ff ff 	lea    -0x250(%rbp),%rsi
  403a39:	b0 00                	mov    $0x0,%al
  403a3b:	e8 f0 ce ff ff       	callq  400930 <printf@plt>
  403a40:	bf 01 00 00 00       	mov    $0x1,%edi
  403a45:	89 85 08 fd ff ff    	mov    %eax,-0x2f8(%rbp)
  403a4b:	e8 20 cf ff ff       	callq  400970 <sleep@plt>
  403a50:	31 ff                	xor    %edi,%edi
  403a52:	89 85 04 fd ff ff    	mov    %eax,-0x2fc(%rbp)
  403a58:	e8 43 cf ff ff       	callq  4009a0 <fflush@plt>
  403a5d:	b9 c8 00 00 00       	mov    $0xc8,%ecx
  403a62:	89 ca                	mov    %ecx,%edx
  403a64:	48 8d b5 b0 fe ff ff 	lea    -0x150(%rbp),%rsi
  403a6b:	48 8d 7d e0          	lea    -0x20(%rbp),%rdi
  403a6f:	48 83 c6 64          	add    $0x64,%rsi
  403a73:	89 85 00 fd ff ff    	mov    %eax,-0x300(%rbp)
  403a79:	e8 12 cf ff ff       	callq  400990 <memcpy@plt>
  403a7e:	66 90                	xchg   %ax,%ax
  403a80:	48 8d a4 24 68 ff ff 	lea    -0x98(%rsp),%rsp
  403a87:	ff 
  403a88:	48 89 14 24          	mov    %rdx,(%rsp)
  403a8c:	48 89 4c 24 08       	mov    %rcx,0x8(%rsp)
  403a91:	48 89 44 24 10       	mov    %rax,0x10(%rsp)
  403a96:	48 c7 c1 60 ff 00 00 	mov    $0xff60,%rcx
  403a9d:	e8 86 17 00 00       	callq  405228 <__afl_maybe_log>
  403aa2:	48 8b 44 24 10       	mov    0x10(%rsp),%rax
  403aa7:	48 8b 4c 24 08       	mov    0x8(%rsp),%rcx
  403aac:	48 8b 14 24          	mov    (%rsp),%rdx
  403ab0:	48 8d a4 24 98 00 00 	lea    0x98(%rsp),%rsp
  403ab7:	00 
  403ab8:	eb 00                	jmp    403aba <main+0x2f8a>
  403aba:	66 90                	xchg   %ax,%ax
  403abc:	48 8d a4 24 68 ff ff 	lea    -0x98(%rsp),%rsp
  403ac3:	ff 
  403ac4:	48 89 14 24          	mov    %rdx,(%rsp)
  403ac8:	48 89 4c 24 08       	mov    %rcx,0x8(%rsp)
  403acd:	48 89 44 24 10       	mov    %rax,0x10(%rsp)
  403ad2:	48 c7 c1 ec c3 00 00 	mov    $0xc3ec,%rcx
  403ad9:	e8 4a 17 00 00       	callq  405228 <__afl_maybe_log>
  403ade:	48 8b 44 24 10       	mov    0x10(%rsp),%rax
  403ae3:	48 8b 4c 24 08       	mov    0x8(%rsp),%rcx
  403ae8:	48 8b 14 24          	mov    (%rsp),%rdx
  403aec:	48 8d a4 24 98 00 00 	lea    0x98(%rsp),%rsp
  403af3:	00 
  403af4:	eb 00                	jmp    403af6 <main+0x2fc6>
  403af6:	66 90                	xchg   %ax,%ax
  403af8:	48 8d a4 24 68 ff ff 	lea    -0x98(%rsp),%rsp
  403aff:	ff 
  403b00:	48 89 14 24          	mov    %rdx,(%rsp)
  403b04:	48 89 4c 24 08       	mov    %rcx,0x8(%rsp)
  403b09:	48 89 44 24 10       	mov    %rax,0x10(%rsp)
  403b0e:	48 c7 c1 1d 0c 00 00 	mov    $0xc1d,%rcx
  403b15:	e8 0e 17 00 00       	callq  405228 <__afl_maybe_log>
  403b1a:	48 8b 44 24 10       	mov    0x10(%rsp),%rax
  403b1f:	48 8b 4c 24 08       	mov    0x8(%rsp),%rcx
  403b24:	48 8b 14 24          	mov    (%rsp),%rdx
  403b28:	48 8d a4 24 98 00 00 	lea    0x98(%rsp),%rsp
  403b2f:	00 
  403b30:	eb 00                	jmp    403b32 <main+0x3002>
  403b32:	66 90                	xchg   %ax,%ax
  403b34:	48 8d a4 24 68 ff ff 	lea    -0x98(%rsp),%rsp
  403b3b:	ff 
  403b3c:	48 89 14 24          	mov    %rdx,(%rsp)
  403b40:	48 89 4c 24 08       	mov    %rcx,0x8(%rsp)
  403b45:	48 89 44 24 10       	mov    %rax,0x10(%rsp)
  403b4a:	48 c7 c1 95 4d 00 00 	mov    $0x4d95,%rcx
  403b51:	e8 d2 16 00 00       	callq  405228 <__afl_maybe_log>
  403b56:	48 8b 44 24 10       	mov    0x10(%rsp),%rax
  403b5b:	48 8b 4c 24 08       	mov    0x8(%rsp),%rcx
  403b60:	48 8b 14 24          	mov    (%rsp),%rdx
  403b64:	48 8d a4 24 98 00 00 	lea    0x98(%rsp),%rsp
  403b6b:	00 
  403b6c:	eb 00                	jmp    403b6e <main+0x303e>
  403b6e:	66 90                	xchg   %ax,%ax
  403b70:	48 8d a4 24 68 ff ff 	lea    -0x98(%rsp),%rsp
  403b77:	ff 
  403b78:	48 89 14 24          	mov    %rdx,(%rsp)
  403b7c:	48 89 4c 24 08       	mov    %rcx,0x8(%rsp)
  403b81:	48 89 44 24 10       	mov    %rax,0x10(%rsp)
  403b86:	48 c7 c1 77 07 00 00 	mov    $0x777,%rcx
  403b8d:	e8 96 16 00 00       	callq  405228 <__afl_maybe_log>
  403b92:	48 8b 44 24 10       	mov    0x10(%rsp),%rax
  403b97:	48 8b 4c 24 08       	mov    0x8(%rsp),%rcx
  403b9c:	48 8b 14 24          	mov    (%rsp),%rdx
  403ba0:	48 8d a4 24 98 00 00 	lea    0x98(%rsp),%rsp
  403ba7:	00 
  403ba8:	eb 00                	jmp    403baa <main+0x307a>
  403baa:	66 90                	xchg   %ax,%ax
  403bac:	48 8d a4 24 68 ff ff 	lea    -0x98(%rsp),%rsp
  403bb3:	ff 
  403bb4:	48 89 14 24          	mov    %rdx,(%rsp)
  403bb8:	48 89 4c 24 08       	mov    %rcx,0x8(%rsp)
  403bbd:	48 89 44 24 10       	mov    %rax,0x10(%rsp)
  403bc2:	48 c7 c1 aa eb 00 00 	mov    $0xebaa,%rcx
  403bc9:	e8 5a 16 00 00       	callq  405228 <__afl_maybe_log>
  403bce:	48 8b 44 24 10       	mov    0x10(%rsp),%rax
  403bd3:	48 8b 4c 24 08       	mov    0x8(%rsp),%rcx
  403bd8:	48 8b 14 24          	mov    (%rsp),%rdx
  403bdc:	48 8d a4 24 98 00 00 	lea    0x98(%rsp),%rsp
  403be3:	00 
  403be4:	eb 00                	jmp    403be6 <main+0x30b6>
  403be6:	66 90                	xchg   %ax,%ax
  403be8:	48 8d a4 24 68 ff ff 	lea    -0x98(%rsp),%rsp
  403bef:	ff 
  403bf0:	48 89 14 24          	mov    %rdx,(%rsp)
  403bf4:	48 89 4c 24 08       	mov    %rcx,0x8(%rsp)
  403bf9:	48 89 44 24 10       	mov    %rax,0x10(%rsp)
  403bfe:	48 c7 c1 3e e1 00 00 	mov    $0xe13e,%rcx
  403c05:	e8 1e 16 00 00       	callq  405228 <__afl_maybe_log>
  403c0a:	48 8b 44 24 10       	mov    0x10(%rsp),%rax
  403c0f:	48 8b 4c 24 08       	mov    0x8(%rsp),%rcx
  403c14:	48 8b 14 24          	mov    (%rsp),%rdx
  403c18:	48 8d a4 24 98 00 00 	lea    0x98(%rsp),%rsp
  403c1f:	00 
  403c20:	eb 00                	jmp    403c22 <main+0x30f2>
  403c22:	66 90                	xchg   %ax,%ax
  403c24:	48 8d a4 24 68 ff ff 	lea    -0x98(%rsp),%rsp
  403c2b:	ff 
  403c2c:	48 89 14 24          	mov    %rdx,(%rsp)
  403c30:	48 89 4c 24 08       	mov    %rcx,0x8(%rsp)
  403c35:	48 89 44 24 10       	mov    %rax,0x10(%rsp)
  403c3a:	48 c7 c1 c0 38 00 00 	mov    $0x38c0,%rcx
  403c41:	e8 e2 15 00 00       	callq  405228 <__afl_maybe_log>
  403c46:	48 8b 44 24 10       	mov    0x10(%rsp),%rax
  403c4b:	48 8b 4c 24 08       	mov    0x8(%rsp),%rcx
  403c50:	48 8b 14 24          	mov    (%rsp),%rdx
  403c54:	48 8d a4 24 98 00 00 	lea    0x98(%rsp),%rsp
  403c5b:	00 
  403c5c:	eb 00                	jmp    403c5e <main+0x312e>
  403c5e:	66 90                	xchg   %ax,%ax
  403c60:	48 8d a4 24 68 ff ff 	lea    -0x98(%rsp),%rsp
  403c67:	ff 
  403c68:	48 89 14 24          	mov    %rdx,(%rsp)
  403c6c:	48 89 4c 24 08       	mov    %rcx,0x8(%rsp)
  403c71:	48 89 44 24 10       	mov    %rax,0x10(%rsp)
  403c76:	48 c7 c1 3e 7d 00 00 	mov    $0x7d3e,%rcx
  403c7d:	e8 a6 15 00 00       	callq  405228 <__afl_maybe_log>
  403c82:	48 8b 44 24 10       	mov    0x10(%rsp),%rax
  403c87:	48 8b 4c 24 08       	mov    0x8(%rsp),%rcx
  403c8c:	48 8b 14 24          	mov    (%rsp),%rdx
  403c90:	48 8d a4 24 98 00 00 	lea    0x98(%rsp),%rsp
  403c97:	00 
  403c98:	eb 00                	jmp    403c9a <main+0x316a>
  403c9a:	66 90                	xchg   %ax,%ax
  403c9c:	48 8d a4 24 68 ff ff 	lea    -0x98(%rsp),%rsp
  403ca3:	ff 
  403ca4:	48 89 14 24          	mov    %rdx,(%rsp)
  403ca8:	48 89 4c 24 08       	mov    %rcx,0x8(%rsp)
  403cad:	48 89 44 24 10       	mov    %rax,0x10(%rsp)
  403cb2:	48 c7 c1 47 b8 00 00 	mov    $0xb847,%rcx
  403cb9:	e8 6a 15 00 00       	callq  405228 <__afl_maybe_log>
  403cbe:	48 8b 44 24 10       	mov    0x10(%rsp),%rax
  403cc3:	48 8b 4c 24 08       	mov    0x8(%rsp),%rcx
  403cc8:	48 8b 14 24          	mov    (%rsp),%rdx
  403ccc:	48 8d a4 24 98 00 00 	lea    0x98(%rsp),%rsp
  403cd3:	00 
  403cd4:	eb 00                	jmp    403cd6 <main+0x31a6>
  403cd6:	66 90                	xchg   %ax,%ax
  403cd8:	48 8d a4 24 68 ff ff 	lea    -0x98(%rsp),%rsp
  403cdf:	ff 
  403ce0:	48 89 14 24          	mov    %rdx,(%rsp)
  403ce4:	48 89 4c 24 08       	mov    %rcx,0x8(%rsp)
  403ce9:	48 89 44 24 10       	mov    %rax,0x10(%rsp)
  403cee:	48 c7 c1 4c df 00 00 	mov    $0xdf4c,%rcx
  403cf5:	e8 2e 15 00 00       	callq  405228 <__afl_maybe_log>
  403cfa:	48 8b 44 24 10       	mov    0x10(%rsp),%rax
  403cff:	48 8b 4c 24 08       	mov    0x8(%rsp),%rcx
  403d04:	48 8b 14 24          	mov    (%rsp),%rdx
  403d08:	48 8d a4 24 98 00 00 	lea    0x98(%rsp),%rsp
  403d0f:	00 
  403d10:	eb 00                	jmp    403d12 <main+0x31e2>
  403d12:	66 90                	xchg   %ax,%ax
  403d14:	48 8d a4 24 68 ff ff 	lea    -0x98(%rsp),%rsp
  403d1b:	ff 
  403d1c:	48 89 14 24          	mov    %rdx,(%rsp)
  403d20:	48 89 4c 24 08       	mov    %rcx,0x8(%rsp)
  403d25:	48 89 44 24 10       	mov    %rax,0x10(%rsp)
  403d2a:	48 c7 c1 4e 8b 00 00 	mov    $0x8b4e,%rcx
  403d31:	e8 f2 14 00 00       	callq  405228 <__afl_maybe_log>
  403d36:	48 8b 44 24 10       	mov    0x10(%rsp),%rax
  403d3b:	48 8b 4c 24 08       	mov    0x8(%rsp),%rcx
  403d40:	48 8b 14 24          	mov    (%rsp),%rdx
  403d44:	48 8d a4 24 98 00 00 	lea    0x98(%rsp),%rsp
  403d4b:	00 
  403d4c:	eb 00                	jmp    403d4e <main+0x321e>
  403d4e:	66 90                	xchg   %ax,%ax
  403d50:	48 8d a4 24 68 ff ff 	lea    -0x98(%rsp),%rsp
  403d57:	ff 
  403d58:	48 89 14 24          	mov    %rdx,(%rsp)
  403d5c:	48 89 4c 24 08       	mov    %rcx,0x8(%rsp)
  403d61:	48 89 44 24 10       	mov    %rax,0x10(%rsp)
  403d66:	48 c7 c1 c9 35 00 00 	mov    $0x35c9,%rcx
  403d6d:	e8 b6 14 00 00       	callq  405228 <__afl_maybe_log>
  403d72:	48 8b 44 24 10       	mov    0x10(%rsp),%rax
  403d77:	48 8b 4c 24 08       	mov    0x8(%rsp),%rcx
  403d7c:	48 8b 14 24          	mov    (%rsp),%rdx
  403d80:	48 8d a4 24 98 00 00 	lea    0x98(%rsp),%rsp
  403d87:	00 
  403d88:	eb 00                	jmp    403d8a <main+0x325a>
  403d8a:	66 90                	xchg   %ax,%ax
  403d8c:	48 8d a4 24 68 ff ff 	lea    -0x98(%rsp),%rsp
  403d93:	ff 
  403d94:	48 89 14 24          	mov    %rdx,(%rsp)
  403d98:	48 89 4c 24 08       	mov    %rcx,0x8(%rsp)
  403d9d:	48 89 44 24 10       	mov    %rax,0x10(%rsp)
  403da2:	48 c7 c1 02 66 00 00 	mov    $0x6602,%rcx
  403da9:	e8 7a 14 00 00       	callq  405228 <__afl_maybe_log>
  403dae:	48 8b 44 24 10       	mov    0x10(%rsp),%rax
  403db3:	48 8b 4c 24 08       	mov    0x8(%rsp),%rcx
  403db8:	48 8b 14 24          	mov    (%rsp),%rdx
  403dbc:	48 8d a4 24 98 00 00 	lea    0x98(%rsp),%rsp
  403dc3:	00 
  403dc4:	eb 00                	jmp    403dc6 <main+0x3296>
  403dc6:	66 90                	xchg   %ax,%ax
  403dc8:	48 8d a4 24 68 ff ff 	lea    -0x98(%rsp),%rsp
  403dcf:	ff 
  403dd0:	48 89 14 24          	mov    %rdx,(%rsp)
  403dd4:	48 89 4c 24 08       	mov    %rcx,0x8(%rsp)
  403dd9:	48 89 44 24 10       	mov    %rax,0x10(%rsp)
  403dde:	48 c7 c1 eb 76 00 00 	mov    $0x76eb,%rcx
  403de5:	e8 3e 14 00 00       	callq  405228 <__afl_maybe_log>
  403dea:	48 8b 44 24 10       	mov    0x10(%rsp),%rax
  403def:	48 8b 4c 24 08       	mov    0x8(%rsp),%rcx
  403df4:	48 8b 14 24          	mov    (%rsp),%rdx
  403df8:	48 8d a4 24 98 00 00 	lea    0x98(%rsp),%rsp
  403dff:	00 
  403e00:	eb 00                	jmp    403e02 <main+0x32d2>
  403e02:	66 90                	xchg   %ax,%ax
  403e04:	48 8d a4 24 68 ff ff 	lea    -0x98(%rsp),%rsp
  403e0b:	ff 
  403e0c:	48 89 14 24          	mov    %rdx,(%rsp)
  403e10:	48 89 4c 24 08       	mov    %rcx,0x8(%rsp)
  403e15:	48 89 44 24 10       	mov    %rax,0x10(%rsp)
  403e1a:	48 c7 c1 0c 14 00 00 	mov    $0x140c,%rcx
  403e21:	e8 02 14 00 00       	callq  405228 <__afl_maybe_log>
  403e26:	48 8b 44 24 10       	mov    0x10(%rsp),%rax
  403e2b:	48 8b 4c 24 08       	mov    0x8(%rsp),%rcx
  403e30:	48 8b 14 24          	mov    (%rsp),%rdx
  403e34:	48 8d a4 24 98 00 00 	lea    0x98(%rsp),%rsp
  403e3b:	00 
  403e3c:	eb 00                	jmp    403e3e <main+0x330e>
  403e3e:	66 90                	xchg   %ax,%ax
  403e40:	48 8d a4 24 68 ff ff 	lea    -0x98(%rsp),%rsp
  403e47:	ff 
  403e48:	48 89 14 24          	mov    %rdx,(%rsp)
  403e4c:	48 89 4c 24 08       	mov    %rcx,0x8(%rsp)
  403e51:	48 89 44 24 10       	mov    %rax,0x10(%rsp)
  403e56:	48 c7 c1 71 5d 00 00 	mov    $0x5d71,%rcx
  403e5d:	e8 c6 13 00 00       	callq  405228 <__afl_maybe_log>
  403e62:	48 8b 44 24 10       	mov    0x10(%rsp),%rax
  403e67:	48 8b 4c 24 08       	mov    0x8(%rsp),%rcx
  403e6c:	48 8b 14 24          	mov    (%rsp),%rdx
  403e70:	48 8d a4 24 98 00 00 	lea    0x98(%rsp),%rsp
  403e77:	00 
  403e78:	eb 00                	jmp    403e7a <main+0x334a>
  403e7a:	66 90                	xchg   %ax,%ax
  403e7c:	48 8d a4 24 68 ff ff 	lea    -0x98(%rsp),%rsp
  403e83:	ff 
  403e84:	48 89 14 24          	mov    %rdx,(%rsp)
  403e88:	48 89 4c 24 08       	mov    %rcx,0x8(%rsp)
  403e8d:	48 89 44 24 10       	mov    %rax,0x10(%rsp)
  403e92:	48 c7 c1 29 03 00 00 	mov    $0x329,%rcx
  403e99:	e8 8a 13 00 00       	callq  405228 <__afl_maybe_log>
  403e9e:	48 8b 44 24 10       	mov    0x10(%rsp),%rax
  403ea3:	48 8b 4c 24 08       	mov    0x8(%rsp),%rcx
  403ea8:	48 8b 14 24          	mov    (%rsp),%rdx
  403eac:	48 8d a4 24 98 00 00 	lea    0x98(%rsp),%rsp
  403eb3:	00 
  403eb4:	eb 00                	jmp    403eb6 <main+0x3386>
  403eb6:	66 90                	xchg   %ax,%ax
  403eb8:	48 8d a4 24 68 ff ff 	lea    -0x98(%rsp),%rsp
  403ebf:	ff 
  403ec0:	48 89 14 24          	mov    %rdx,(%rsp)
  403ec4:	48 89 4c 24 08       	mov    %rcx,0x8(%rsp)
  403ec9:	48 89 44 24 10       	mov    %rax,0x10(%rsp)
  403ece:	48 c7 c1 95 3c 00 00 	mov    $0x3c95,%rcx
  403ed5:	e8 4e 13 00 00       	callq  405228 <__afl_maybe_log>
  403eda:	48 8b 44 24 10       	mov    0x10(%rsp),%rax
  403edf:	48 8b 4c 24 08       	mov    0x8(%rsp),%rcx
  403ee4:	48 8b 14 24          	mov    (%rsp),%rdx
  403ee8:	48 8d a4 24 98 00 00 	lea    0x98(%rsp),%rsp
  403eef:	00 
  403ef0:	eb 00                	jmp    403ef2 <main+0x33c2>
  403ef2:	66 90                	xchg   %ax,%ax
  403ef4:	48 8d a4 24 68 ff ff 	lea    -0x98(%rsp),%rsp
  403efb:	ff 
  403efc:	48 89 14 24          	mov    %rdx,(%rsp)
  403f00:	48 89 4c 24 08       	mov    %rcx,0x8(%rsp)
  403f05:	48 89 44 24 10       	mov    %rax,0x10(%rsp)
  403f0a:	48 c7 c1 f3 9b 00 00 	mov    $0x9bf3,%rcx
  403f11:	e8 12 13 00 00       	callq  405228 <__afl_maybe_log>
  403f16:	48 8b 44 24 10       	mov    0x10(%rsp),%rax
  403f1b:	48 8b 4c 24 08       	mov    0x8(%rsp),%rcx
  403f20:	48 8b 14 24          	mov    (%rsp),%rdx
  403f24:	48 8d a4 24 98 00 00 	lea    0x98(%rsp),%rsp
  403f2b:	00 
  403f2c:	eb 00                	jmp    403f2e <main+0x33fe>
  403f2e:	66 90                	xchg   %ax,%ax
  403f30:	48 8d a4 24 68 ff ff 	lea    -0x98(%rsp),%rsp
  403f37:	ff 
  403f38:	48 89 14 24          	mov    %rdx,(%rsp)
  403f3c:	48 89 4c 24 08       	mov    %rcx,0x8(%rsp)
  403f41:	48 89 44 24 10       	mov    %rax,0x10(%rsp)
  403f46:	48 c7 c1 77 b4 00 00 	mov    $0xb477,%rcx
  403f4d:	e8 d6 12 00 00       	callq  405228 <__afl_maybe_log>
  403f52:	48 8b 44 24 10       	mov    0x10(%rsp),%rax
  403f57:	48 8b 4c 24 08       	mov    0x8(%rsp),%rcx
  403f5c:	48 8b 14 24          	mov    (%rsp),%rdx
  403f60:	48 8d a4 24 98 00 00 	lea    0x98(%rsp),%rsp
  403f67:	00 
  403f68:	eb 00                	jmp    403f6a <main+0x343a>
  403f6a:	66 90                	xchg   %ax,%ax
  403f6c:	48 8d a4 24 68 ff ff 	lea    -0x98(%rsp),%rsp
  403f73:	ff 
  403f74:	48 89 14 24          	mov    %rdx,(%rsp)
  403f78:	48 89 4c 24 08       	mov    %rcx,0x8(%rsp)
  403f7d:	48 89 44 24 10       	mov    %rax,0x10(%rsp)
  403f82:	48 c7 c1 e4 e3 00 00 	mov    $0xe3e4,%rcx
  403f89:	e8 9a 12 00 00       	callq  405228 <__afl_maybe_log>
  403f8e:	48 8b 44 24 10       	mov    0x10(%rsp),%rax
  403f93:	48 8b 4c 24 08       	mov    0x8(%rsp),%rcx
  403f98:	48 8b 14 24          	mov    (%rsp),%rdx
  403f9c:	48 8d a4 24 98 00 00 	lea    0x98(%rsp),%rsp
  403fa3:	00 
  403fa4:	eb 00                	jmp    403fa6 <main+0x3476>
  403fa6:	66 90                	xchg   %ax,%ax
  403fa8:	48 8d a4 24 68 ff ff 	lea    -0x98(%rsp),%rsp
  403faf:	ff 
  403fb0:	48 89 14 24          	mov    %rdx,(%rsp)
  403fb4:	48 89 4c 24 08       	mov    %rcx,0x8(%rsp)
  403fb9:	48 89 44 24 10       	mov    %rax,0x10(%rsp)
  403fbe:	48 c7 c1 ec 8b 00 00 	mov    $0x8bec,%rcx
  403fc5:	e8 5e 12 00 00       	callq  405228 <__afl_maybe_log>
  403fca:	48 8b 44 24 10       	mov    0x10(%rsp),%rax
  403fcf:	48 8b 4c 24 08       	mov    0x8(%rsp),%rcx
  403fd4:	48 8b 14 24          	mov    (%rsp),%rdx
  403fd8:	48 8d a4 24 98 00 00 	lea    0x98(%rsp),%rsp
  403fdf:	00 
  403fe0:	eb 00                	jmp    403fe2 <main+0x34b2>
  403fe2:	66 90                	xchg   %ax,%ax
  403fe4:	48 8d a4 24 68 ff ff 	lea    -0x98(%rsp),%rsp
  403feb:	ff 
  403fec:	48 89 14 24          	mov    %rdx,(%rsp)
  403ff0:	48 89 4c 24 08       	mov    %rcx,0x8(%rsp)
  403ff5:	48 89 44 24 10       	mov    %rax,0x10(%rsp)
  403ffa:	48 c7 c1 58 c7 00 00 	mov    $0xc758,%rcx
  404001:	e8 22 12 00 00       	callq  405228 <__afl_maybe_log>
  404006:	48 8b 44 24 10       	mov    0x10(%rsp),%rax
  40400b:	48 8b 4c 24 08       	mov    0x8(%rsp),%rcx
  404010:	48 8b 14 24          	mov    (%rsp),%rdx
  404014:	48 8d a4 24 98 00 00 	lea    0x98(%rsp),%rsp
  40401b:	00 
  40401c:	eb 00                	jmp    40401e <main+0x34ee>
  40401e:	66 90                	xchg   %ax,%ax
  404020:	48 8d a4 24 68 ff ff 	lea    -0x98(%rsp),%rsp
  404027:	ff 
  404028:	48 89 14 24          	mov    %rdx,(%rsp)
  40402c:	48 89 4c 24 08       	mov    %rcx,0x8(%rsp)
  404031:	48 89 44 24 10       	mov    %rax,0x10(%rsp)
  404036:	48 c7 c1 e2 99 00 00 	mov    $0x99e2,%rcx
  40403d:	e8 e6 11 00 00       	callq  405228 <__afl_maybe_log>
  404042:	48 8b 44 24 10       	mov    0x10(%rsp),%rax
  404047:	48 8b 4c 24 08       	mov    0x8(%rsp),%rcx
  40404c:	48 8b 14 24          	mov    (%rsp),%rdx
  404050:	48 8d a4 24 98 00 00 	lea    0x98(%rsp),%rsp
  404057:	00 
  404058:	eb 00                	jmp    40405a <main+0x352a>
  40405a:	66 90                	xchg   %ax,%ax
  40405c:	48 8d a4 24 68 ff ff 	lea    -0x98(%rsp),%rsp
  404063:	ff 
  404064:	48 89 14 24          	mov    %rdx,(%rsp)
  404068:	48 89 4c 24 08       	mov    %rcx,0x8(%rsp)
  40406d:	48 89 44 24 10       	mov    %rax,0x10(%rsp)
  404072:	48 c7 c1 65 aa 00 00 	mov    $0xaa65,%rcx
  404079:	e8 aa 11 00 00       	callq  405228 <__afl_maybe_log>
  40407e:	48 8b 44 24 10       	mov    0x10(%rsp),%rax
  404083:	48 8b 4c 24 08       	mov    0x8(%rsp),%rcx
  404088:	48 8b 14 24          	mov    (%rsp),%rdx
  40408c:	48 8d a4 24 98 00 00 	lea    0x98(%rsp),%rsp
  404093:	00 
  404094:	eb 00                	jmp    404096 <main+0x3566>
  404096:	66 90                	xchg   %ax,%ax
  404098:	48 8d a4 24 68 ff ff 	lea    -0x98(%rsp),%rsp
  40409f:	ff 
  4040a0:	48 89 14 24          	mov    %rdx,(%rsp)
  4040a4:	48 89 4c 24 08       	mov    %rcx,0x8(%rsp)
  4040a9:	48 89 44 24 10       	mov    %rax,0x10(%rsp)
  4040ae:	48 c7 c1 b2 92 00 00 	mov    $0x92b2,%rcx
  4040b5:	e8 6e 11 00 00       	callq  405228 <__afl_maybe_log>
  4040ba:	48 8b 44 24 10       	mov    0x10(%rsp),%rax
  4040bf:	48 8b 4c 24 08       	mov    0x8(%rsp),%rcx
  4040c4:	48 8b 14 24          	mov    (%rsp),%rdx
  4040c8:	48 8d a4 24 98 00 00 	lea    0x98(%rsp),%rsp
  4040cf:	00 
  4040d0:	eb 00                	jmp    4040d2 <main+0x35a2>
  4040d2:	66 90                	xchg   %ax,%ax
  4040d4:	48 8d a4 24 68 ff ff 	lea    -0x98(%rsp),%rsp
  4040db:	ff 
  4040dc:	48 89 14 24          	mov    %rdx,(%rsp)
  4040e0:	48 89 4c 24 08       	mov    %rcx,0x8(%rsp)
  4040e5:	48 89 44 24 10       	mov    %rax,0x10(%rsp)
  4040ea:	48 c7 c1 17 3b 00 00 	mov    $0x3b17,%rcx
  4040f1:	e8 32 11 00 00       	callq  405228 <__afl_maybe_log>
  4040f6:	48 8b 44 24 10       	mov    0x10(%rsp),%rax
  4040fb:	48 8b 4c 24 08       	mov    0x8(%rsp),%rcx
  404100:	48 8b 14 24          	mov    (%rsp),%rdx
  404104:	48 8d a4 24 98 00 00 	lea    0x98(%rsp),%rsp
  40410b:	00 
  40410c:	eb 00                	jmp    40410e <main+0x35de>
  40410e:	66 90                	xchg   %ax,%ax
  404110:	48 8d a4 24 68 ff ff 	lea    -0x98(%rsp),%rsp
  404117:	ff 
  404118:	48 89 14 24          	mov    %rdx,(%rsp)
  40411c:	48 89 4c 24 08       	mov    %rcx,0x8(%rsp)
  404121:	48 89 44 24 10       	mov    %rax,0x10(%rsp)
  404126:	48 c7 c1 f3 32 00 00 	mov    $0x32f3,%rcx
  40412d:	e8 f6 10 00 00       	callq  405228 <__afl_maybe_log>
  404132:	48 8b 44 24 10       	mov    0x10(%rsp),%rax
  404137:	48 8b 4c 24 08       	mov    0x8(%rsp),%rcx
  40413c:	48 8b 14 24          	mov    (%rsp),%rdx
  404140:	48 8d a4 24 98 00 00 	lea    0x98(%rsp),%rsp
  404147:	00 
  404148:	eb 00                	jmp    40414a <main+0x361a>
  40414a:	66 90                	xchg   %ax,%ax
  40414c:	48 8d a4 24 68 ff ff 	lea    -0x98(%rsp),%rsp
  404153:	ff 
  404154:	48 89 14 24          	mov    %rdx,(%rsp)
  404158:	48 89 4c 24 08       	mov    %rcx,0x8(%rsp)
  40415d:	48 89 44 24 10       	mov    %rax,0x10(%rsp)
  404162:	48 c7 c1 3b 88 00 00 	mov    $0x883b,%rcx
  404169:	e8 ba 10 00 00       	callq  405228 <__afl_maybe_log>
  40416e:	48 8b 44 24 10       	mov    0x10(%rsp),%rax
  404173:	48 8b 4c 24 08       	mov    0x8(%rsp),%rcx
  404178:	48 8b 14 24          	mov    (%rsp),%rdx
  40417c:	48 8d a4 24 98 00 00 	lea    0x98(%rsp),%rsp
  404183:	00 
  404184:	eb 00                	jmp    404186 <main+0x3656>
  404186:	66 90                	xchg   %ax,%ax
  404188:	48 8d a4 24 68 ff ff 	lea    -0x98(%rsp),%rsp
  40418f:	ff 
  404190:	48 89 14 24          	mov    %rdx,(%rsp)
  404194:	48 89 4c 24 08       	mov    %rcx,0x8(%rsp)
  404199:	48 89 44 24 10       	mov    %rax,0x10(%rsp)
  40419e:	48 c7 c1 f7 f2 00 00 	mov    $0xf2f7,%rcx
  4041a5:	e8 7e 10 00 00       	callq  405228 <__afl_maybe_log>
  4041aa:	48 8b 44 24 10       	mov    0x10(%rsp),%rax
  4041af:	48 8b 4c 24 08       	mov    0x8(%rsp),%rcx
  4041b4:	48 8b 14 24          	mov    (%rsp),%rdx
  4041b8:	48 8d a4 24 98 00 00 	lea    0x98(%rsp),%rsp
  4041bf:	00 
  4041c0:	eb 00                	jmp    4041c2 <main+0x3692>
  4041c2:	66 90                	xchg   %ax,%ax
  4041c4:	48 8d a4 24 68 ff ff 	lea    -0x98(%rsp),%rsp
  4041cb:	ff 
  4041cc:	48 89 14 24          	mov    %rdx,(%rsp)
  4041d0:	48 89 4c 24 08       	mov    %rcx,0x8(%rsp)
  4041d5:	48 89 44 24 10       	mov    %rax,0x10(%rsp)
  4041da:	48 c7 c1 2a 20 00 00 	mov    $0x202a,%rcx
  4041e1:	e8 42 10 00 00       	callq  405228 <__afl_maybe_log>
  4041e6:	48 8b 44 24 10       	mov    0x10(%rsp),%rax
  4041eb:	48 8b 4c 24 08       	mov    0x8(%rsp),%rcx
  4041f0:	48 8b 14 24          	mov    (%rsp),%rdx
  4041f4:	48 8d a4 24 98 00 00 	lea    0x98(%rsp),%rsp
  4041fb:	00 
  4041fc:	eb 00                	jmp    4041fe <main+0x36ce>
  4041fe:	66 90                	xchg   %ax,%ax
  404200:	48 8d a4 24 68 ff ff 	lea    -0x98(%rsp),%rsp
  404207:	ff 
  404208:	48 89 14 24          	mov    %rdx,(%rsp)
  40420c:	48 89 4c 24 08       	mov    %rcx,0x8(%rsp)
  404211:	48 89 44 24 10       	mov    %rax,0x10(%rsp)
  404216:	48 c7 c1 41 74 00 00 	mov    $0x7441,%rcx
  40421d:	e8 06 10 00 00       	callq  405228 <__afl_maybe_log>
  404222:	48 8b 44 24 10       	mov    0x10(%rsp),%rax
  404227:	48 8b 4c 24 08       	mov    0x8(%rsp),%rcx
  40422c:	48 8b 14 24          	mov    (%rsp),%rdx
  404230:	48 8d a4 24 98 00 00 	lea    0x98(%rsp),%rsp
  404237:	00 
  404238:	eb 00                	jmp    40423a <main+0x370a>
  40423a:	66 90                	xchg   %ax,%ax
  40423c:	48 8d a4 24 68 ff ff 	lea    -0x98(%rsp),%rsp
  404243:	ff 
  404244:	48 89 14 24          	mov    %rdx,(%rsp)
  404248:	48 89 4c 24 08       	mov    %rcx,0x8(%rsp)
  40424d:	48 89 44 24 10       	mov    %rax,0x10(%rsp)
  404252:	48 c7 c1 f6 b9 00 00 	mov    $0xb9f6,%rcx
  404259:	e8 ca 0f 00 00       	callq  405228 <__afl_maybe_log>
  40425e:	48 8b 44 24 10       	mov    0x10(%rsp),%rax
  404263:	48 8b 4c 24 08       	mov    0x8(%rsp),%rcx
  404268:	48 8b 14 24          	mov    (%rsp),%rdx
  40426c:	48 8d a4 24 98 00 00 	lea    0x98(%rsp),%rsp
  404273:	00 
  404274:	eb 00                	jmp    404276 <main+0x3746>
  404276:	66 90                	xchg   %ax,%ax
  404278:	48 8d a4 24 68 ff ff 	lea    -0x98(%rsp),%rsp
  40427f:	ff 
  404280:	48 89 14 24          	mov    %rdx,(%rsp)
  404284:	48 89 4c 24 08       	mov    %rcx,0x8(%rsp)
  404289:	48 89 44 24 10       	mov    %rax,0x10(%rsp)
  40428e:	48 c7 c1 12 74 00 00 	mov    $0x7412,%rcx
  404295:	e8 8e 0f 00 00       	callq  405228 <__afl_maybe_log>
  40429a:	48 8b 44 24 10       	mov    0x10(%rsp),%rax
  40429f:	48 8b 4c 24 08       	mov    0x8(%rsp),%rcx
  4042a4:	48 8b 14 24          	mov    (%rsp),%rdx
  4042a8:	48 8d a4 24 98 00 00 	lea    0x98(%rsp),%rsp
  4042af:	00 
  4042b0:	eb 00                	jmp    4042b2 <main+0x3782>
  4042b2:	66 90                	xchg   %ax,%ax
  4042b4:	48 8d a4 24 68 ff ff 	lea    -0x98(%rsp),%rsp
  4042bb:	ff 
  4042bc:	48 89 14 24          	mov    %rdx,(%rsp)
  4042c0:	48 89 4c 24 08       	mov    %rcx,0x8(%rsp)
  4042c5:	48 89 44 24 10       	mov    %rax,0x10(%rsp)
  4042ca:	48 c7 c1 e2 f4 00 00 	mov    $0xf4e2,%rcx
  4042d1:	e8 52 0f 00 00       	callq  405228 <__afl_maybe_log>
  4042d6:	48 8b 44 24 10       	mov    0x10(%rsp),%rax
  4042db:	48 8b 4c 24 08       	mov    0x8(%rsp),%rcx
  4042e0:	48 8b 14 24          	mov    (%rsp),%rdx
  4042e4:	48 8d a4 24 98 00 00 	lea    0x98(%rsp),%rsp
  4042eb:	00 
  4042ec:	eb 00                	jmp    4042ee <main+0x37be>
  4042ee:	66 90                	xchg   %ax,%ax
  4042f0:	48 8d a4 24 68 ff ff 	lea    -0x98(%rsp),%rsp
  4042f7:	ff 
  4042f8:	48 89 14 24          	mov    %rdx,(%rsp)
  4042fc:	48 89 4c 24 08       	mov    %rcx,0x8(%rsp)
  404301:	48 89 44 24 10       	mov    %rax,0x10(%rsp)
  404306:	48 c7 c1 88 dd 00 00 	mov    $0xdd88,%rcx
  40430d:	e8 16 0f 00 00       	callq  405228 <__afl_maybe_log>
  404312:	48 8b 44 24 10       	mov    0x10(%rsp),%rax
  404317:	48 8b 4c 24 08       	mov    0x8(%rsp),%rcx
  40431c:	48 8b 14 24          	mov    (%rsp),%rdx
  404320:	48 8d a4 24 98 00 00 	lea    0x98(%rsp),%rsp
  404327:	00 
  404328:	eb 00                	jmp    40432a <main+0x37fa>
  40432a:	66 90                	xchg   %ax,%ax
  40432c:	48 8d a4 24 68 ff ff 	lea    -0x98(%rsp),%rsp
  404333:	ff 
  404334:	48 89 14 24          	mov    %rdx,(%rsp)
  404338:	48 89 4c 24 08       	mov    %rcx,0x8(%rsp)
  40433d:	48 89 44 24 10       	mov    %rax,0x10(%rsp)
  404342:	48 c7 c1 3e be 00 00 	mov    $0xbe3e,%rcx
  404349:	e8 da 0e 00 00       	callq  405228 <__afl_maybe_log>
  40434e:	48 8b 44 24 10       	mov    0x10(%rsp),%rax
  404353:	48 8b 4c 24 08       	mov    0x8(%rsp),%rcx
  404358:	48 8b 14 24          	mov    (%rsp),%rdx
  40435c:	48 8d a4 24 98 00 00 	lea    0x98(%rsp),%rsp
  404363:	00 
  404364:	eb 00                	jmp    404366 <main+0x3836>
  404366:	66 90                	xchg   %ax,%ax
  404368:	48 8d a4 24 68 ff ff 	lea    -0x98(%rsp),%rsp
  40436f:	ff 
  404370:	48 89 14 24          	mov    %rdx,(%rsp)
  404374:	48 89 4c 24 08       	mov    %rcx,0x8(%rsp)
  404379:	48 89 44 24 10       	mov    %rax,0x10(%rsp)
  40437e:	48 c7 c1 6b f5 00 00 	mov    $0xf56b,%rcx
  404385:	e8 9e 0e 00 00       	callq  405228 <__afl_maybe_log>
  40438a:	48 8b 44 24 10       	mov    0x10(%rsp),%rax
  40438f:	48 8b 4c 24 08       	mov    0x8(%rsp),%rcx
  404394:	48 8b 14 24          	mov    (%rsp),%rdx
  404398:	48 8d a4 24 98 00 00 	lea    0x98(%rsp),%rsp
  40439f:	00 
  4043a0:	eb 00                	jmp    4043a2 <main+0x3872>
  4043a2:	66 90                	xchg   %ax,%ax
  4043a4:	48 8d a4 24 68 ff ff 	lea    -0x98(%rsp),%rsp
  4043ab:	ff 
  4043ac:	48 89 14 24          	mov    %rdx,(%rsp)
  4043b0:	48 89 4c 24 08       	mov    %rcx,0x8(%rsp)
  4043b5:	48 89 44 24 10       	mov    %rax,0x10(%rsp)
  4043ba:	48 c7 c1 9e 72 00 00 	mov    $0x729e,%rcx
  4043c1:	e8 62 0e 00 00       	callq  405228 <__afl_maybe_log>
  4043c6:	48 8b 44 24 10       	mov    0x10(%rsp),%rax
  4043cb:	48 8b 4c 24 08       	mov    0x8(%rsp),%rcx
  4043d0:	48 8b 14 24          	mov    (%rsp),%rdx
  4043d4:	48 8d a4 24 98 00 00 	lea    0x98(%rsp),%rsp
  4043db:	00 
  4043dc:	eb 00                	jmp    4043de <main+0x38ae>
  4043de:	66 90                	xchg   %ax,%ax
  4043e0:	48 8d a4 24 68 ff ff 	lea    -0x98(%rsp),%rsp
  4043e7:	ff 
  4043e8:	48 89 14 24          	mov    %rdx,(%rsp)
  4043ec:	48 89 4c 24 08       	mov    %rcx,0x8(%rsp)
  4043f1:	48 89 44 24 10       	mov    %rax,0x10(%rsp)
  4043f6:	48 c7 c1 35 05 00 00 	mov    $0x535,%rcx
  4043fd:	e8 26 0e 00 00       	callq  405228 <__afl_maybe_log>
  404402:	48 8b 44 24 10       	mov    0x10(%rsp),%rax
  404407:	48 8b 4c 24 08       	mov    0x8(%rsp),%rcx
  40440c:	48 8b 14 24          	mov    (%rsp),%rdx
  404410:	48 8d a4 24 98 00 00 	lea    0x98(%rsp),%rsp
  404417:	00 
  404418:	eb 00                	jmp    40441a <main+0x38ea>
  40441a:	66 90                	xchg   %ax,%ax
  40441c:	48 8d a4 24 68 ff ff 	lea    -0x98(%rsp),%rsp
  404423:	ff 
  404424:	48 89 14 24          	mov    %rdx,(%rsp)
  404428:	48 89 4c 24 08       	mov    %rcx,0x8(%rsp)
  40442d:	48 89 44 24 10       	mov    %rax,0x10(%rsp)
  404432:	48 c7 c1 7b 08 00 00 	mov    $0x87b,%rcx
  404439:	e8 ea 0d 00 00       	callq  405228 <__afl_maybe_log>
  40443e:	48 8b 44 24 10       	mov    0x10(%rsp),%rax
  404443:	48 8b 4c 24 08       	mov    0x8(%rsp),%rcx
  404448:	48 8b 14 24          	mov    (%rsp),%rdx
  40444c:	48 8d a4 24 98 00 00 	lea    0x98(%rsp),%rsp
  404453:	00 
  404454:	eb 00                	jmp    404456 <main+0x3926>
  404456:	66 90                	xchg   %ax,%ax
  404458:	48 8d a4 24 68 ff ff 	lea    -0x98(%rsp),%rsp
  40445f:	ff 
  404460:	48 89 14 24          	mov    %rdx,(%rsp)
  404464:	48 89 4c 24 08       	mov    %rcx,0x8(%rsp)
  404469:	48 89 44 24 10       	mov    %rax,0x10(%rsp)
  40446e:	48 c7 c1 b6 52 00 00 	mov    $0x52b6,%rcx
  404475:	e8 ae 0d 00 00       	callq  405228 <__afl_maybe_log>
  40447a:	48 8b 44 24 10       	mov    0x10(%rsp),%rax
  40447f:	48 8b 4c 24 08       	mov    0x8(%rsp),%rcx
  404484:	48 8b 14 24          	mov    (%rsp),%rdx
  404488:	48 8d a4 24 98 00 00 	lea    0x98(%rsp),%rsp
  40448f:	00 
  404490:	eb 00                	jmp    404492 <main+0x3962>
  404492:	66 90                	xchg   %ax,%ax
  404494:	48 8d a4 24 68 ff ff 	lea    -0x98(%rsp),%rsp
  40449b:	ff 
  40449c:	48 89 14 24          	mov    %rdx,(%rsp)
  4044a0:	48 89 4c 24 08       	mov    %rcx,0x8(%rsp)
  4044a5:	48 89 44 24 10       	mov    %rax,0x10(%rsp)
  4044aa:	48 c7 c1 64 60 00 00 	mov    $0x6064,%rcx
  4044b1:	e8 72 0d 00 00       	callq  405228 <__afl_maybe_log>
  4044b6:	48 8b 44 24 10       	mov    0x10(%rsp),%rax
  4044bb:	48 8b 4c 24 08       	mov    0x8(%rsp),%rcx
  4044c0:	48 8b 14 24          	mov    (%rsp),%rdx
  4044c4:	48 8d a4 24 98 00 00 	lea    0x98(%rsp),%rsp
  4044cb:	00 
  4044cc:	eb 00                	jmp    4044ce <main+0x399e>
  4044ce:	66 90                	xchg   %ax,%ax
  4044d0:	48 8d a4 24 68 ff ff 	lea    -0x98(%rsp),%rsp
  4044d7:	ff 
  4044d8:	48 89 14 24          	mov    %rdx,(%rsp)
  4044dc:	48 89 4c 24 08       	mov    %rcx,0x8(%rsp)
  4044e1:	48 89 44 24 10       	mov    %rax,0x10(%rsp)
  4044e6:	48 c7 c1 ad e4 00 00 	mov    $0xe4ad,%rcx
  4044ed:	e8 36 0d 00 00       	callq  405228 <__afl_maybe_log>
  4044f2:	48 8b 44 24 10       	mov    0x10(%rsp),%rax
  4044f7:	48 8b 4c 24 08       	mov    0x8(%rsp),%rcx
  4044fc:	48 8b 14 24          	mov    (%rsp),%rdx
  404500:	48 8d a4 24 98 00 00 	lea    0x98(%rsp),%rsp
  404507:	00 
  404508:	eb 00                	jmp    40450a <main+0x39da>
  40450a:	66 90                	xchg   %ax,%ax
  40450c:	48 8d a4 24 68 ff ff 	lea    -0x98(%rsp),%rsp
  404513:	ff 
  404514:	48 89 14 24          	mov    %rdx,(%rsp)
  404518:	48 89 4c 24 08       	mov    %rcx,0x8(%rsp)
  40451d:	48 89 44 24 10       	mov    %rax,0x10(%rsp)
  404522:	48 c7 c1 89 2f 00 00 	mov    $0x2f89,%rcx
  404529:	e8 fa 0c 00 00       	callq  405228 <__afl_maybe_log>
  40452e:	48 8b 44 24 10       	mov    0x10(%rsp),%rax
  404533:	48 8b 4c 24 08       	mov    0x8(%rsp),%rcx
  404538:	48 8b 14 24          	mov    (%rsp),%rdx
  40453c:	48 8d a4 24 98 00 00 	lea    0x98(%rsp),%rsp
  404543:	00 
  404544:	eb 00                	jmp    404546 <main+0x3a16>
  404546:	66 90                	xchg   %ax,%ax
  404548:	48 8d a4 24 68 ff ff 	lea    -0x98(%rsp),%rsp
  40454f:	ff 
  404550:	48 89 14 24          	mov    %rdx,(%rsp)
  404554:	48 89 4c 24 08       	mov    %rcx,0x8(%rsp)
  404559:	48 89 44 24 10       	mov    %rax,0x10(%rsp)
  40455e:	48 c7 c1 e7 84 00 00 	mov    $0x84e7,%rcx
  404565:	e8 be 0c 00 00       	callq  405228 <__afl_maybe_log>
  40456a:	48 8b 44 24 10       	mov    0x10(%rsp),%rax
  40456f:	48 8b 4c 24 08       	mov    0x8(%rsp),%rcx
  404574:	48 8b 14 24          	mov    (%rsp),%rdx
  404578:	48 8d a4 24 98 00 00 	lea    0x98(%rsp),%rsp
  40457f:	00 
  404580:	eb 00                	jmp    404582 <main+0x3a52>
  404582:	66 90                	xchg   %ax,%ax
  404584:	48 8d a4 24 68 ff ff 	lea    -0x98(%rsp),%rsp
  40458b:	ff 
  40458c:	48 89 14 24          	mov    %rdx,(%rsp)
  404590:	48 89 4c 24 08       	mov    %rcx,0x8(%rsp)
  404595:	48 89 44 24 10       	mov    %rax,0x10(%rsp)
  40459a:	48 c7 c1 0d 28 00 00 	mov    $0x280d,%rcx
  4045a1:	e8 82 0c 00 00       	callq  405228 <__afl_maybe_log>
  4045a6:	48 8b 44 24 10       	mov    0x10(%rsp),%rax
  4045ab:	48 8b 4c 24 08       	mov    0x8(%rsp),%rcx
  4045b0:	48 8b 14 24          	mov    (%rsp),%rdx
  4045b4:	48 8d a4 24 98 00 00 	lea    0x98(%rsp),%rsp
  4045bb:	00 
  4045bc:	eb 00                	jmp    4045be <main+0x3a8e>
  4045be:	66 90                	xchg   %ax,%ax
  4045c0:	48 8d a4 24 68 ff ff 	lea    -0x98(%rsp),%rsp
  4045c7:	ff 
  4045c8:	48 89 14 24          	mov    %rdx,(%rsp)
  4045cc:	48 89 4c 24 08       	mov    %rcx,0x8(%rsp)
  4045d1:	48 89 44 24 10       	mov    %rax,0x10(%rsp)
  4045d6:	48 c7 c1 07 73 00 00 	mov    $0x7307,%rcx
  4045dd:	e8 46 0c 00 00       	callq  405228 <__afl_maybe_log>
  4045e2:	48 8b 44 24 10       	mov    0x10(%rsp),%rax
  4045e7:	48 8b 4c 24 08       	mov    0x8(%rsp),%rcx
  4045ec:	48 8b 14 24          	mov    (%rsp),%rdx
  4045f0:	48 8d a4 24 98 00 00 	lea    0x98(%rsp),%rsp
  4045f7:	00 
  4045f8:	eb 00                	jmp    4045fa <main+0x3aca>
  4045fa:	66 90                	xchg   %ax,%ax
  4045fc:	48 8d a4 24 68 ff ff 	lea    -0x98(%rsp),%rsp
  404603:	ff 
  404604:	48 89 14 24          	mov    %rdx,(%rsp)
  404608:	48 89 4c 24 08       	mov    %rcx,0x8(%rsp)
  40460d:	48 89 44 24 10       	mov    %rax,0x10(%rsp)
  404612:	48 c7 c1 fe a9 00 00 	mov    $0xa9fe,%rcx
  404619:	e8 0a 0c 00 00       	callq  405228 <__afl_maybe_log>
  40461e:	48 8b 44 24 10       	mov    0x10(%rsp),%rax
  404623:	48 8b 4c 24 08       	mov    0x8(%rsp),%rcx
  404628:	48 8b 14 24          	mov    (%rsp),%rdx
  40462c:	48 8d a4 24 98 00 00 	lea    0x98(%rsp),%rsp
  404633:	00 
  404634:	eb 00                	jmp    404636 <main+0x3b06>
  404636:	66 90                	xchg   %ax,%ax
  404638:	48 8d a4 24 68 ff ff 	lea    -0x98(%rsp),%rsp
  40463f:	ff 
  404640:	48 89 14 24          	mov    %rdx,(%rsp)
  404644:	48 89 4c 24 08       	mov    %rcx,0x8(%rsp)
  404649:	48 89 44 24 10       	mov    %rax,0x10(%rsp)
  40464e:	48 c7 c1 ed 37 00 00 	mov    $0x37ed,%rcx
  404655:	e8 ce 0b 00 00       	callq  405228 <__afl_maybe_log>
  40465a:	48 8b 44 24 10       	mov    0x10(%rsp),%rax
  40465f:	48 8b 4c 24 08       	mov    0x8(%rsp),%rcx
  404664:	48 8b 14 24          	mov    (%rsp),%rdx
  404668:	48 8d a4 24 98 00 00 	lea    0x98(%rsp),%rsp
  40466f:	00 
  404670:	eb 00                	jmp    404672 <main+0x3b42>
  404672:	66 90                	xchg   %ax,%ax
  404674:	48 8d a4 24 68 ff ff 	lea    -0x98(%rsp),%rsp
  40467b:	ff 
  40467c:	48 89 14 24          	mov    %rdx,(%rsp)
  404680:	48 89 4c 24 08       	mov    %rcx,0x8(%rsp)
  404685:	48 89 44 24 10       	mov    %rax,0x10(%rsp)
  40468a:	48 c7 c1 a3 0f 00 00 	mov    $0xfa3,%rcx
  404691:	e8 92 0b 00 00       	callq  405228 <__afl_maybe_log>
  404696:	48 8b 44 24 10       	mov    0x10(%rsp),%rax
  40469b:	48 8b 4c 24 08       	mov    0x8(%rsp),%rcx
  4046a0:	48 8b 14 24          	mov    (%rsp),%rdx
  4046a4:	48 8d a4 24 98 00 00 	lea    0x98(%rsp),%rsp
  4046ab:	00 
  4046ac:	eb 00                	jmp    4046ae <main+0x3b7e>
  4046ae:	66 90                	xchg   %ax,%ax
  4046b0:	48 8d a4 24 68 ff ff 	lea    -0x98(%rsp),%rsp
  4046b7:	ff 
  4046b8:	48 89 14 24          	mov    %rdx,(%rsp)
  4046bc:	48 89 4c 24 08       	mov    %rcx,0x8(%rsp)
  4046c1:	48 89 44 24 10       	mov    %rax,0x10(%rsp)
  4046c6:	48 c7 c1 a8 77 00 00 	mov    $0x77a8,%rcx
  4046cd:	e8 56 0b 00 00       	callq  405228 <__afl_maybe_log>
  4046d2:	48 8b 44 24 10       	mov    0x10(%rsp),%rax
  4046d7:	48 8b 4c 24 08       	mov    0x8(%rsp),%rcx
  4046dc:	48 8b 14 24          	mov    (%rsp),%rdx
  4046e0:	48 8d a4 24 98 00 00 	lea    0x98(%rsp),%rsp
  4046e7:	00 
  4046e8:	eb 00                	jmp    4046ea <main+0x3bba>
  4046ea:	66 90                	xchg   %ax,%ax
  4046ec:	48 8d a4 24 68 ff ff 	lea    -0x98(%rsp),%rsp
  4046f3:	ff 
  4046f4:	48 89 14 24          	mov    %rdx,(%rsp)
  4046f8:	48 89 4c 24 08       	mov    %rcx,0x8(%rsp)
  4046fd:	48 89 44 24 10       	mov    %rax,0x10(%rsp)
  404702:	48 c7 c1 e9 7e 00 00 	mov    $0x7ee9,%rcx
  404709:	e8 1a 0b 00 00       	callq  405228 <__afl_maybe_log>
  40470e:	48 8b 44 24 10       	mov    0x10(%rsp),%rax
  404713:	48 8b 4c 24 08       	mov    0x8(%rsp),%rcx
  404718:	48 8b 14 24          	mov    (%rsp),%rdx
  40471c:	48 8d a4 24 98 00 00 	lea    0x98(%rsp),%rsp
  404723:	00 
  404724:	eb 00                	jmp    404726 <main+0x3bf6>
  404726:	66 90                	xchg   %ax,%ax
  404728:	48 8d a4 24 68 ff ff 	lea    -0x98(%rsp),%rsp
  40472f:	ff 
  404730:	48 89 14 24          	mov    %rdx,(%rsp)
  404734:	48 89 4c 24 08       	mov    %rcx,0x8(%rsp)
  404739:	48 89 44 24 10       	mov    %rax,0x10(%rsp)
  40473e:	48 c7 c1 78 53 00 00 	mov    $0x5378,%rcx
  404745:	e8 de 0a 00 00       	callq  405228 <__afl_maybe_log>
  40474a:	48 8b 44 24 10       	mov    0x10(%rsp),%rax
  40474f:	48 8b 4c 24 08       	mov    0x8(%rsp),%rcx
  404754:	48 8b 14 24          	mov    (%rsp),%rdx
  404758:	48 8d a4 24 98 00 00 	lea    0x98(%rsp),%rsp
  40475f:	00 
  404760:	eb 00                	jmp    404762 <main+0x3c32>
  404762:	66 90                	xchg   %ax,%ax
  404764:	48 8d a4 24 68 ff ff 	lea    -0x98(%rsp),%rsp
  40476b:	ff 
  40476c:	48 89 14 24          	mov    %rdx,(%rsp)
  404770:	48 89 4c 24 08       	mov    %rcx,0x8(%rsp)
  404775:	48 89 44 24 10       	mov    %rax,0x10(%rsp)
  40477a:	48 c7 c1 61 fc 00 00 	mov    $0xfc61,%rcx
  404781:	e8 a2 0a 00 00       	callq  405228 <__afl_maybe_log>
  404786:	48 8b 44 24 10       	mov    0x10(%rsp),%rax
  40478b:	48 8b 4c 24 08       	mov    0x8(%rsp),%rcx
  404790:	48 8b 14 24          	mov    (%rsp),%rdx
  404794:	48 8d a4 24 98 00 00 	lea    0x98(%rsp),%rsp
  40479b:	00 
  40479c:	eb 00                	jmp    40479e <main+0x3c6e>
  40479e:	66 90                	xchg   %ax,%ax
  4047a0:	48 8d a4 24 68 ff ff 	lea    -0x98(%rsp),%rsp
  4047a7:	ff 
  4047a8:	48 89 14 24          	mov    %rdx,(%rsp)
  4047ac:	48 89 4c 24 08       	mov    %rcx,0x8(%rsp)
  4047b1:	48 89 44 24 10       	mov    %rax,0x10(%rsp)
  4047b6:	48 c7 c1 8b 0e 00 00 	mov    $0xe8b,%rcx
  4047bd:	e8 66 0a 00 00       	callq  405228 <__afl_maybe_log>
  4047c2:	48 8b 44 24 10       	mov    0x10(%rsp),%rax
  4047c7:	48 8b 4c 24 08       	mov    0x8(%rsp),%rcx
  4047cc:	48 8b 14 24          	mov    (%rsp),%rdx
  4047d0:	48 8d a4 24 98 00 00 	lea    0x98(%rsp),%rsp
  4047d7:	00 
  4047d8:	eb 00                	jmp    4047da <main+0x3caa>
  4047da:	66 90                	xchg   %ax,%ax
  4047dc:	48 8d a4 24 68 ff ff 	lea    -0x98(%rsp),%rsp
  4047e3:	ff 
  4047e4:	48 89 14 24          	mov    %rdx,(%rsp)
  4047e8:	48 89 4c 24 08       	mov    %rcx,0x8(%rsp)
  4047ed:	48 89 44 24 10       	mov    %rax,0x10(%rsp)
  4047f2:	48 c7 c1 96 f0 00 00 	mov    $0xf096,%rcx
  4047f9:	e8 2a 0a 00 00       	callq  405228 <__afl_maybe_log>
  4047fe:	48 8b 44 24 10       	mov    0x10(%rsp),%rax
  404803:	48 8b 4c 24 08       	mov    0x8(%rsp),%rcx
  404808:	48 8b 14 24          	mov    (%rsp),%rdx
  40480c:	48 8d a4 24 98 00 00 	lea    0x98(%rsp),%rsp
  404813:	00 
  404814:	eb 00                	jmp    404816 <main+0x3ce6>
  404816:	66 90                	xchg   %ax,%ax
  404818:	48 8d a4 24 68 ff ff 	lea    -0x98(%rsp),%rsp
  40481f:	ff 
  404820:	48 89 14 24          	mov    %rdx,(%rsp)
  404824:	48 89 4c 24 08       	mov    %rcx,0x8(%rsp)
  404829:	48 89 44 24 10       	mov    %rax,0x10(%rsp)
  40482e:	48 c7 c1 6f 48 00 00 	mov    $0x486f,%rcx
  404835:	e8 ee 09 00 00       	callq  405228 <__afl_maybe_log>
  40483a:	48 8b 44 24 10       	mov    0x10(%rsp),%rax
  40483f:	48 8b 4c 24 08       	mov    0x8(%rsp),%rcx
  404844:	48 8b 14 24          	mov    (%rsp),%rdx
  404848:	48 8d a4 24 98 00 00 	lea    0x98(%rsp),%rsp
  40484f:	00 
  404850:	eb 00                	jmp    404852 <main+0x3d22>
  404852:	66 90                	xchg   %ax,%ax
  404854:	48 8d a4 24 68 ff ff 	lea    -0x98(%rsp),%rsp
  40485b:	ff 
  40485c:	48 89 14 24          	mov    %rdx,(%rsp)
  404860:	48 89 4c 24 08       	mov    %rcx,0x8(%rsp)
  404865:	48 89 44 24 10       	mov    %rax,0x10(%rsp)
  40486a:	48 c7 c1 ec e6 00 00 	mov    $0xe6ec,%rcx
  404871:	e8 b2 09 00 00       	callq  405228 <__afl_maybe_log>
  404876:	48 8b 44 24 10       	mov    0x10(%rsp),%rax
  40487b:	48 8b 4c 24 08       	mov    0x8(%rsp),%rcx
  404880:	48 8b 14 24          	mov    (%rsp),%rdx
  404884:	48 8d a4 24 98 00 00 	lea    0x98(%rsp),%rsp
  40488b:	00 
  40488c:	eb 00                	jmp    40488e <main+0x3d5e>
  40488e:	66 90                	xchg   %ax,%ax
  404890:	48 8d a4 24 68 ff ff 	lea    -0x98(%rsp),%rsp
  404897:	ff 
  404898:	48 89 14 24          	mov    %rdx,(%rsp)
  40489c:	48 89 4c 24 08       	mov    %rcx,0x8(%rsp)
  4048a1:	48 89 44 24 10       	mov    %rax,0x10(%rsp)
  4048a6:	48 c7 c1 99 39 00 00 	mov    $0x3999,%rcx
  4048ad:	e8 76 09 00 00       	callq  405228 <__afl_maybe_log>
  4048b2:	48 8b 44 24 10       	mov    0x10(%rsp),%rax
  4048b7:	48 8b 4c 24 08       	mov    0x8(%rsp),%rcx
  4048bc:	48 8b 14 24          	mov    (%rsp),%rdx
  4048c0:	48 8d a4 24 98 00 00 	lea    0x98(%rsp),%rsp
  4048c7:	00 
  4048c8:	eb 00                	jmp    4048ca <main+0x3d9a>
  4048ca:	66 90                	xchg   %ax,%ax
  4048cc:	48 8d a4 24 68 ff ff 	lea    -0x98(%rsp),%rsp
  4048d3:	ff 
  4048d4:	48 89 14 24          	mov    %rdx,(%rsp)
  4048d8:	48 89 4c 24 08       	mov    %rcx,0x8(%rsp)
  4048dd:	48 89 44 24 10       	mov    %rax,0x10(%rsp)
  4048e2:	48 c7 c1 c1 04 00 00 	mov    $0x4c1,%rcx
  4048e9:	e8 3a 09 00 00       	callq  405228 <__afl_maybe_log>
  4048ee:	48 8b 44 24 10       	mov    0x10(%rsp),%rax
  4048f3:	48 8b 4c 24 08       	mov    0x8(%rsp),%rcx
  4048f8:	48 8b 14 24          	mov    (%rsp),%rdx
  4048fc:	48 8d a4 24 98 00 00 	lea    0x98(%rsp),%rsp
  404903:	00 
  404904:	eb 00                	jmp    404906 <main+0x3dd6>
  404906:	66 90                	xchg   %ax,%ax
  404908:	48 8d a4 24 68 ff ff 	lea    -0x98(%rsp),%rsp
  40490f:	ff 
  404910:	48 89 14 24          	mov    %rdx,(%rsp)
  404914:	48 89 4c 24 08       	mov    %rcx,0x8(%rsp)
  404919:	48 89 44 24 10       	mov    %rax,0x10(%rsp)
  40491e:	48 c7 c1 28 66 00 00 	mov    $0x6628,%rcx
  404925:	e8 fe 08 00 00       	callq  405228 <__afl_maybe_log>
  40492a:	48 8b 44 24 10       	mov    0x10(%rsp),%rax
  40492f:	48 8b 4c 24 08       	mov    0x8(%rsp),%rcx
  404934:	48 8b 14 24          	mov    (%rsp),%rdx
  404938:	48 8d a4 24 98 00 00 	lea    0x98(%rsp),%rsp
  40493f:	00 
  404940:	eb 00                	jmp    404942 <main+0x3e12>
  404942:	66 90                	xchg   %ax,%ax
  404944:	48 8d a4 24 68 ff ff 	lea    -0x98(%rsp),%rsp
  40494b:	ff 
  40494c:	48 89 14 24          	mov    %rdx,(%rsp)
  404950:	48 89 4c 24 08       	mov    %rcx,0x8(%rsp)
  404955:	48 89 44 24 10       	mov    %rax,0x10(%rsp)
  40495a:	48 c7 c1 a9 b7 00 00 	mov    $0xb7a9,%rcx
  404961:	e8 c2 08 00 00       	callq  405228 <__afl_maybe_log>
  404966:	48 8b 44 24 10       	mov    0x10(%rsp),%rax
  40496b:	48 8b 4c 24 08       	mov    0x8(%rsp),%rcx
  404970:	48 8b 14 24          	mov    (%rsp),%rdx
  404974:	48 8d a4 24 98 00 00 	lea    0x98(%rsp),%rsp
  40497b:	00 
  40497c:	eb 00                	jmp    40497e <main+0x3e4e>
  40497e:	66 90                	xchg   %ax,%ax
  404980:	48 8d a4 24 68 ff ff 	lea    -0x98(%rsp),%rsp
  404987:	ff 
  404988:	48 89 14 24          	mov    %rdx,(%rsp)
  40498c:	48 89 4c 24 08       	mov    %rcx,0x8(%rsp)
  404991:	48 89 44 24 10       	mov    %rax,0x10(%rsp)
  404996:	48 c7 c1 d1 0e 00 00 	mov    $0xed1,%rcx
  40499d:	e8 86 08 00 00       	callq  405228 <__afl_maybe_log>
  4049a2:	48 8b 44 24 10       	mov    0x10(%rsp),%rax
  4049a7:	48 8b 4c 24 08       	mov    0x8(%rsp),%rcx
  4049ac:	48 8b 14 24          	mov    (%rsp),%rdx
  4049b0:	48 8d a4 24 98 00 00 	lea    0x98(%rsp),%rsp
  4049b7:	00 
  4049b8:	eb 00                	jmp    4049ba <main+0x3e8a>
  4049ba:	66 90                	xchg   %ax,%ax
  4049bc:	48 8d a4 24 68 ff ff 	lea    -0x98(%rsp),%rsp
  4049c3:	ff 
  4049c4:	48 89 14 24          	mov    %rdx,(%rsp)
  4049c8:	48 89 4c 24 08       	mov    %rcx,0x8(%rsp)
  4049cd:	48 89 44 24 10       	mov    %rax,0x10(%rsp)
  4049d2:	48 c7 c1 4a c0 00 00 	mov    $0xc04a,%rcx
  4049d9:	e8 4a 08 00 00       	callq  405228 <__afl_maybe_log>
  4049de:	48 8b 44 24 10       	mov    0x10(%rsp),%rax
  4049e3:	48 8b 4c 24 08       	mov    0x8(%rsp),%rcx
  4049e8:	48 8b 14 24          	mov    (%rsp),%rdx
  4049ec:	48 8d a4 24 98 00 00 	lea    0x98(%rsp),%rsp
  4049f3:	00 
  4049f4:	eb 00                	jmp    4049f6 <main+0x3ec6>
  4049f6:	66 90                	xchg   %ax,%ax
  4049f8:	48 8d a4 24 68 ff ff 	lea    -0x98(%rsp),%rsp
  4049ff:	ff 
  404a00:	48 89 14 24          	mov    %rdx,(%rsp)
  404a04:	48 89 4c 24 08       	mov    %rcx,0x8(%rsp)
  404a09:	48 89 44 24 10       	mov    %rax,0x10(%rsp)
  404a0e:	48 c7 c1 89 00 00 00 	mov    $0x89,%rcx
  404a15:	e8 0e 08 00 00       	callq  405228 <__afl_maybe_log>
  404a1a:	48 8b 44 24 10       	mov    0x10(%rsp),%rax
  404a1f:	48 8b 4c 24 08       	mov    0x8(%rsp),%rcx
  404a24:	48 8b 14 24          	mov    (%rsp),%rdx
  404a28:	48 8d a4 24 98 00 00 	lea    0x98(%rsp),%rsp
  404a2f:	00 
  404a30:	eb 00                	jmp    404a32 <main+0x3f02>
  404a32:	66 90                	xchg   %ax,%ax
  404a34:	48 8d a4 24 68 ff ff 	lea    -0x98(%rsp),%rsp
  404a3b:	ff 
  404a3c:	48 89 14 24          	mov    %rdx,(%rsp)
  404a40:	48 89 4c 24 08       	mov    %rcx,0x8(%rsp)
  404a45:	48 89 44 24 10       	mov    %rax,0x10(%rsp)
  404a4a:	48 c7 c1 34 5c 00 00 	mov    $0x5c34,%rcx
  404a51:	e8 d2 07 00 00       	callq  405228 <__afl_maybe_log>
  404a56:	48 8b 44 24 10       	mov    0x10(%rsp),%rax
  404a5b:	48 8b 4c 24 08       	mov    0x8(%rsp),%rcx
  404a60:	48 8b 14 24          	mov    (%rsp),%rdx
  404a64:	48 8d a4 24 98 00 00 	lea    0x98(%rsp),%rsp
  404a6b:	00 
  404a6c:	eb 00                	jmp    404a6e <main+0x3f3e>
  404a6e:	66 90                	xchg   %ax,%ax
  404a70:	48 8d a4 24 68 ff ff 	lea    -0x98(%rsp),%rsp
  404a77:	ff 
  404a78:	48 89 14 24          	mov    %rdx,(%rsp)
  404a7c:	48 89 4c 24 08       	mov    %rcx,0x8(%rsp)
  404a81:	48 89 44 24 10       	mov    %rax,0x10(%rsp)
  404a86:	48 c7 c1 cf 9d 00 00 	mov    $0x9dcf,%rcx
  404a8d:	e8 96 07 00 00       	callq  405228 <__afl_maybe_log>
  404a92:	48 8b 44 24 10       	mov    0x10(%rsp),%rax
  404a97:	48 8b 4c 24 08       	mov    0x8(%rsp),%rcx
  404a9c:	48 8b 14 24          	mov    (%rsp),%rdx
  404aa0:	48 8d a4 24 98 00 00 	lea    0x98(%rsp),%rsp
  404aa7:	00 
  404aa8:	eb 00                	jmp    404aaa <main+0x3f7a>
  404aaa:	66 90                	xchg   %ax,%ax
  404aac:	48 8d a4 24 68 ff ff 	lea    -0x98(%rsp),%rsp
  404ab3:	ff 
  404ab4:	48 89 14 24          	mov    %rdx,(%rsp)
  404ab8:	48 89 4c 24 08       	mov    %rcx,0x8(%rsp)
  404abd:	48 89 44 24 10       	mov    %rax,0x10(%rsp)
  404ac2:	48 c7 c1 44 e5 00 00 	mov    $0xe544,%rcx
  404ac9:	e8 5a 07 00 00       	callq  405228 <__afl_maybe_log>
  404ace:	48 8b 44 24 10       	mov    0x10(%rsp),%rax
  404ad3:	48 8b 4c 24 08       	mov    0x8(%rsp),%rcx
  404ad8:	48 8b 14 24          	mov    (%rsp),%rdx
  404adc:	48 8d a4 24 98 00 00 	lea    0x98(%rsp),%rsp
  404ae3:	00 
  404ae4:	eb 00                	jmp    404ae6 <main+0x3fb6>
  404ae6:	66 90                	xchg   %ax,%ax
  404ae8:	48 8d a4 24 68 ff ff 	lea    -0x98(%rsp),%rsp
  404aef:	ff 
  404af0:	48 89 14 24          	mov    %rdx,(%rsp)
  404af4:	48 89 4c 24 08       	mov    %rcx,0x8(%rsp)
  404af9:	48 89 44 24 10       	mov    %rax,0x10(%rsp)
  404afe:	48 c7 c1 a6 cc 00 00 	mov    $0xcca6,%rcx
  404b05:	e8 1e 07 00 00       	callq  405228 <__afl_maybe_log>
  404b0a:	48 8b 44 24 10       	mov    0x10(%rsp),%rax
  404b0f:	48 8b 4c 24 08       	mov    0x8(%rsp),%rcx
  404b14:	48 8b 14 24          	mov    (%rsp),%rdx
  404b18:	48 8d a4 24 98 00 00 	lea    0x98(%rsp),%rsp
  404b1f:	00 
  404b20:	eb 00                	jmp    404b22 <main+0x3ff2>
  404b22:	66 90                	xchg   %ax,%ax
  404b24:	48 8d a4 24 68 ff ff 	lea    -0x98(%rsp),%rsp
  404b2b:	ff 
  404b2c:	48 89 14 24          	mov    %rdx,(%rsp)
  404b30:	48 89 4c 24 08       	mov    %rcx,0x8(%rsp)
  404b35:	48 89 44 24 10       	mov    %rax,0x10(%rsp)
  404b3a:	48 c7 c1 f6 49 00 00 	mov    $0x49f6,%rcx
  404b41:	e8 e2 06 00 00       	callq  405228 <__afl_maybe_log>
  404b46:	48 8b 44 24 10       	mov    0x10(%rsp),%rax
  404b4b:	48 8b 4c 24 08       	mov    0x8(%rsp),%rcx
  404b50:	48 8b 14 24          	mov    (%rsp),%rdx
  404b54:	48 8d a4 24 98 00 00 	lea    0x98(%rsp),%rsp
  404b5b:	00 
  404b5c:	eb 00                	jmp    404b5e <main+0x402e>
  404b5e:	66 90                	xchg   %ax,%ax
  404b60:	48 8d a4 24 68 ff ff 	lea    -0x98(%rsp),%rsp
  404b67:	ff 
  404b68:	48 89 14 24          	mov    %rdx,(%rsp)
  404b6c:	48 89 4c 24 08       	mov    %rcx,0x8(%rsp)
  404b71:	48 89 44 24 10       	mov    %rax,0x10(%rsp)
  404b76:	48 c7 c1 82 e6 00 00 	mov    $0xe682,%rcx
  404b7d:	e8 a6 06 00 00       	callq  405228 <__afl_maybe_log>
  404b82:	48 8b 44 24 10       	mov    0x10(%rsp),%rax
  404b87:	48 8b 4c 24 08       	mov    0x8(%rsp),%rcx
  404b8c:	48 8b 14 24          	mov    (%rsp),%rdx
  404b90:	48 8d a4 24 98 00 00 	lea    0x98(%rsp),%rsp
  404b97:	00 
  404b98:	eb 00                	jmp    404b9a <main+0x406a>
  404b9a:	66 90                	xchg   %ax,%ax
  404b9c:	48 8d a4 24 68 ff ff 	lea    -0x98(%rsp),%rsp
  404ba3:	ff 
  404ba4:	48 89 14 24          	mov    %rdx,(%rsp)
  404ba8:	48 89 4c 24 08       	mov    %rcx,0x8(%rsp)
  404bad:	48 89 44 24 10       	mov    %rax,0x10(%rsp)
  404bb2:	48 c7 c1 73 3c 00 00 	mov    $0x3c73,%rcx
  404bb9:	e8 6a 06 00 00       	callq  405228 <__afl_maybe_log>
  404bbe:	48 8b 44 24 10       	mov    0x10(%rsp),%rax
  404bc3:	48 8b 4c 24 08       	mov    0x8(%rsp),%rcx
  404bc8:	48 8b 14 24          	mov    (%rsp),%rdx
  404bcc:	48 8d a4 24 98 00 00 	lea    0x98(%rsp),%rsp
  404bd3:	00 
  404bd4:	eb 00                	jmp    404bd6 <main+0x40a6>
  404bd6:	66 90                	xchg   %ax,%ax
  404bd8:	48 8d a4 24 68 ff ff 	lea    -0x98(%rsp),%rsp
  404bdf:	ff 
  404be0:	48 89 14 24          	mov    %rdx,(%rsp)
  404be4:	48 89 4c 24 08       	mov    %rcx,0x8(%rsp)
  404be9:	48 89 44 24 10       	mov    %rax,0x10(%rsp)
  404bee:	48 c7 c1 86 8b 00 00 	mov    $0x8b86,%rcx
  404bf5:	e8 2e 06 00 00       	callq  405228 <__afl_maybe_log>
  404bfa:	48 8b 44 24 10       	mov    0x10(%rsp),%rax
  404bff:	48 8b 4c 24 08       	mov    0x8(%rsp),%rcx
  404c04:	48 8b 14 24          	mov    (%rsp),%rdx
  404c08:	48 8d a4 24 98 00 00 	lea    0x98(%rsp),%rsp
  404c0f:	00 
  404c10:	eb 00                	jmp    404c12 <main+0x40e2>
  404c12:	66 90                	xchg   %ax,%ax
  404c14:	48 8d a4 24 68 ff ff 	lea    -0x98(%rsp),%rsp
  404c1b:	ff 
  404c1c:	48 89 14 24          	mov    %rdx,(%rsp)
  404c20:	48 89 4c 24 08       	mov    %rcx,0x8(%rsp)
  404c25:	48 89 44 24 10       	mov    %rax,0x10(%rsp)
  404c2a:	48 c7 c1 0e 5c 00 00 	mov    $0x5c0e,%rcx
  404c31:	e8 f2 05 00 00       	callq  405228 <__afl_maybe_log>
  404c36:	48 8b 44 24 10       	mov    0x10(%rsp),%rax
  404c3b:	48 8b 4c 24 08       	mov    0x8(%rsp),%rcx
  404c40:	48 8b 14 24          	mov    (%rsp),%rdx
  404c44:	48 8d a4 24 98 00 00 	lea    0x98(%rsp),%rsp
  404c4b:	00 
  404c4c:	eb 00                	jmp    404c4e <main+0x411e>
  404c4e:	66 90                	xchg   %ax,%ax
  404c50:	48 8d a4 24 68 ff ff 	lea    -0x98(%rsp),%rsp
  404c57:	ff 
  404c58:	48 89 14 24          	mov    %rdx,(%rsp)
  404c5c:	48 89 4c 24 08       	mov    %rcx,0x8(%rsp)
  404c61:	48 89 44 24 10       	mov    %rax,0x10(%rsp)
  404c66:	48 c7 c1 d4 39 00 00 	mov    $0x39d4,%rcx
  404c6d:	e8 b6 05 00 00       	callq  405228 <__afl_maybe_log>
  404c72:	48 8b 44 24 10       	mov    0x10(%rsp),%rax
  404c77:	48 8b 4c 24 08       	mov    0x8(%rsp),%rcx
  404c7c:	48 8b 14 24          	mov    (%rsp),%rdx
  404c80:	48 8d a4 24 98 00 00 	lea    0x98(%rsp),%rsp
  404c87:	00 
  404c88:	eb 00                	jmp    404c8a <main+0x415a>
  404c8a:	66 90                	xchg   %ax,%ax
  404c8c:	48 8d a4 24 68 ff ff 	lea    -0x98(%rsp),%rsp
  404c93:	ff 
  404c94:	48 89 14 24          	mov    %rdx,(%rsp)
  404c98:	48 89 4c 24 08       	mov    %rcx,0x8(%rsp)
  404c9d:	48 89 44 24 10       	mov    %rax,0x10(%rsp)
  404ca2:	48 c7 c1 a0 83 00 00 	mov    $0x83a0,%rcx
  404ca9:	e8 7a 05 00 00       	callq  405228 <__afl_maybe_log>
  404cae:	48 8b 44 24 10       	mov    0x10(%rsp),%rax
  404cb3:	48 8b 4c 24 08       	mov    0x8(%rsp),%rcx
  404cb8:	48 8b 14 24          	mov    (%rsp),%rdx
  404cbc:	48 8d a4 24 98 00 00 	lea    0x98(%rsp),%rsp
  404cc3:	00 
  404cc4:	eb 00                	jmp    404cc6 <main+0x4196>
  404cc6:	66 90                	xchg   %ax,%ax
  404cc8:	48 8d a4 24 68 ff ff 	lea    -0x98(%rsp),%rsp
  404ccf:	ff 
  404cd0:	48 89 14 24          	mov    %rdx,(%rsp)
  404cd4:	48 89 4c 24 08       	mov    %rcx,0x8(%rsp)
  404cd9:	48 89 44 24 10       	mov    %rax,0x10(%rsp)
  404cde:	48 c7 c1 9d 8d 00 00 	mov    $0x8d9d,%rcx
  404ce5:	e8 3e 05 00 00       	callq  405228 <__afl_maybe_log>
  404cea:	48 8b 44 24 10       	mov    0x10(%rsp),%rax
  404cef:	48 8b 4c 24 08       	mov    0x8(%rsp),%rcx
  404cf4:	48 8b 14 24          	mov    (%rsp),%rdx
  404cf8:	48 8d a4 24 98 00 00 	lea    0x98(%rsp),%rsp
  404cff:	00 
  404d00:	eb 00                	jmp    404d02 <main+0x41d2>
  404d02:	66 90                	xchg   %ax,%ax
  404d04:	48 8d a4 24 68 ff ff 	lea    -0x98(%rsp),%rsp
  404d0b:	ff 
  404d0c:	48 89 14 24          	mov    %rdx,(%rsp)
  404d10:	48 89 4c 24 08       	mov    %rcx,0x8(%rsp)
  404d15:	48 89 44 24 10       	mov    %rax,0x10(%rsp)
  404d1a:	48 c7 c1 2d 79 00 00 	mov    $0x792d,%rcx
  404d21:	e8 02 05 00 00       	callq  405228 <__afl_maybe_log>
  404d26:	48 8b 44 24 10       	mov    0x10(%rsp),%rax
  404d2b:	48 8b 4c 24 08       	mov    0x8(%rsp),%rcx
  404d30:	48 8b 14 24          	mov    (%rsp),%rdx
  404d34:	48 8d a4 24 98 00 00 	lea    0x98(%rsp),%rsp
  404d3b:	00 
  404d3c:	eb 00                	jmp    404d3e <main+0x420e>
  404d3e:	66 90                	xchg   %ax,%ax
  404d40:	48 8d a4 24 68 ff ff 	lea    -0x98(%rsp),%rsp
  404d47:	ff 
  404d48:	48 89 14 24          	mov    %rdx,(%rsp)
  404d4c:	48 89 4c 24 08       	mov    %rcx,0x8(%rsp)
  404d51:	48 89 44 24 10       	mov    %rax,0x10(%rsp)
  404d56:	48 c7 c1 f2 9c 00 00 	mov    $0x9cf2,%rcx
  404d5d:	e8 c6 04 00 00       	callq  405228 <__afl_maybe_log>
  404d62:	48 8b 44 24 10       	mov    0x10(%rsp),%rax
  404d67:	48 8b 4c 24 08       	mov    0x8(%rsp),%rcx
  404d6c:	48 8b 14 24          	mov    (%rsp),%rdx
  404d70:	48 8d a4 24 98 00 00 	lea    0x98(%rsp),%rsp
  404d77:	00 
  404d78:	eb 00                	jmp    404d7a <main+0x424a>
  404d7a:	66 90                	xchg   %ax,%ax
  404d7c:	48 8d a4 24 68 ff ff 	lea    -0x98(%rsp),%rsp
  404d83:	ff 
  404d84:	48 89 14 24          	mov    %rdx,(%rsp)
  404d88:	48 89 4c 24 08       	mov    %rcx,0x8(%rsp)
  404d8d:	48 89 44 24 10       	mov    %rax,0x10(%rsp)
  404d92:	48 c7 c1 2d e3 00 00 	mov    $0xe32d,%rcx
  404d99:	e8 8a 04 00 00       	callq  405228 <__afl_maybe_log>
  404d9e:	48 8b 44 24 10       	mov    0x10(%rsp),%rax
  404da3:	48 8b 4c 24 08       	mov    0x8(%rsp),%rcx
  404da8:	48 8b 14 24          	mov    (%rsp),%rdx
  404dac:	48 8d a4 24 98 00 00 	lea    0x98(%rsp),%rsp
  404db3:	00 
  404db4:	eb 00                	jmp    404db6 <main+0x4286>
  404db6:	66 90                	xchg   %ax,%ax
  404db8:	48 8d a4 24 68 ff ff 	lea    -0x98(%rsp),%rsp
  404dbf:	ff 
  404dc0:	48 89 14 24          	mov    %rdx,(%rsp)
  404dc4:	48 89 4c 24 08       	mov    %rcx,0x8(%rsp)
  404dc9:	48 89 44 24 10       	mov    %rax,0x10(%rsp)
  404dce:	48 c7 c1 64 09 00 00 	mov    $0x964,%rcx
  404dd5:	e8 4e 04 00 00       	callq  405228 <__afl_maybe_log>
  404dda:	48 8b 44 24 10       	mov    0x10(%rsp),%rax
  404ddf:	48 8b 4c 24 08       	mov    0x8(%rsp),%rcx
  404de4:	48 8b 14 24          	mov    (%rsp),%rdx
  404de8:	48 8d a4 24 98 00 00 	lea    0x98(%rsp),%rsp
  404def:	00 
  404df0:	eb 00                	jmp    404df2 <main+0x42c2>
  404df2:	66 90                	xchg   %ax,%ax
  404df4:	48 8d a4 24 68 ff ff 	lea    -0x98(%rsp),%rsp
  404dfb:	ff 
  404dfc:	48 89 14 24          	mov    %rdx,(%rsp)
  404e00:	48 89 4c 24 08       	mov    %rcx,0x8(%rsp)
  404e05:	48 89 44 24 10       	mov    %rax,0x10(%rsp)
  404e0a:	48 c7 c1 ac 15 00 00 	mov    $0x15ac,%rcx
  404e11:	e8 12 04 00 00       	callq  405228 <__afl_maybe_log>
  404e16:	48 8b 44 24 10       	mov    0x10(%rsp),%rax
  404e1b:	48 8b 4c 24 08       	mov    0x8(%rsp),%rcx
  404e20:	48 8b 14 24          	mov    (%rsp),%rdx
  404e24:	48 8d a4 24 98 00 00 	lea    0x98(%rsp),%rsp
  404e2b:	00 
  404e2c:	eb 00                	jmp    404e2e <main+0x42fe>
  404e2e:	66 90                	xchg   %ax,%ax
  404e30:	48 8d a4 24 68 ff ff 	lea    -0x98(%rsp),%rsp
  404e37:	ff 
  404e38:	48 89 14 24          	mov    %rdx,(%rsp)
  404e3c:	48 89 4c 24 08       	mov    %rcx,0x8(%rsp)
  404e41:	48 89 44 24 10       	mov    %rax,0x10(%rsp)
  404e46:	48 c7 c1 80 1a 00 00 	mov    $0x1a80,%rcx
  404e4d:	e8 d6 03 00 00       	callq  405228 <__afl_maybe_log>
  404e52:	48 8b 44 24 10       	mov    0x10(%rsp),%rax
  404e57:	48 8b 4c 24 08       	mov    0x8(%rsp),%rcx
  404e5c:	48 8b 14 24          	mov    (%rsp),%rdx
  404e60:	48 8d a4 24 98 00 00 	lea    0x98(%rsp),%rsp
  404e67:	00 
  404e68:	eb 00                	jmp    404e6a <main+0x433a>
  404e6a:	66 90                	xchg   %ax,%ax
  404e6c:	48 8d a4 24 68 ff ff 	lea    -0x98(%rsp),%rsp
  404e73:	ff 
  404e74:	48 89 14 24          	mov    %rdx,(%rsp)
  404e78:	48 89 4c 24 08       	mov    %rcx,0x8(%rsp)
  404e7d:	48 89 44 24 10       	mov    %rax,0x10(%rsp)
  404e82:	48 c7 c1 7c 98 00 00 	mov    $0x987c,%rcx
  404e89:	e8 9a 03 00 00       	callq  405228 <__afl_maybe_log>
  404e8e:	48 8b 44 24 10       	mov    0x10(%rsp),%rax
  404e93:	48 8b 4c 24 08       	mov    0x8(%rsp),%rcx
  404e98:	48 8b 14 24          	mov    (%rsp),%rdx
  404e9c:	48 8d a4 24 98 00 00 	lea    0x98(%rsp),%rsp
  404ea3:	00 
  404ea4:	eb 00                	jmp    404ea6 <main+0x4376>
  404ea6:	66 90                	xchg   %ax,%ax
  404ea8:	48 8d a4 24 68 ff ff 	lea    -0x98(%rsp),%rsp
  404eaf:	ff 
  404eb0:	48 89 14 24          	mov    %rdx,(%rsp)
  404eb4:	48 89 4c 24 08       	mov    %rcx,0x8(%rsp)
  404eb9:	48 89 44 24 10       	mov    %rax,0x10(%rsp)
  404ebe:	48 c7 c1 96 dc 00 00 	mov    $0xdc96,%rcx
  404ec5:	e8 5e 03 00 00       	callq  405228 <__afl_maybe_log>
  404eca:	48 8b 44 24 10       	mov    0x10(%rsp),%rax
  404ecf:	48 8b 4c 24 08       	mov    0x8(%rsp),%rcx
  404ed4:	48 8b 14 24          	mov    (%rsp),%rdx
  404ed8:	48 8d a4 24 98 00 00 	lea    0x98(%rsp),%rsp
  404edf:	00 
  404ee0:	eb 00                	jmp    404ee2 <main+0x43b2>
  404ee2:	66 90                	xchg   %ax,%ax
  404ee4:	48 8d a4 24 68 ff ff 	lea    -0x98(%rsp),%rsp
  404eeb:	ff 
  404eec:	48 89 14 24          	mov    %rdx,(%rsp)
  404ef0:	48 89 4c 24 08       	mov    %rcx,0x8(%rsp)
  404ef5:	48 89 44 24 10       	mov    %rax,0x10(%rsp)
  404efa:	48 c7 c1 57 c2 00 00 	mov    $0xc257,%rcx
  404f01:	e8 22 03 00 00       	callq  405228 <__afl_maybe_log>
  404f06:	48 8b 44 24 10       	mov    0x10(%rsp),%rax
  404f0b:	48 8b 4c 24 08       	mov    0x8(%rsp),%rcx
  404f10:	48 8b 14 24          	mov    (%rsp),%rdx
  404f14:	48 8d a4 24 98 00 00 	lea    0x98(%rsp),%rsp
  404f1b:	00 
  404f1c:	eb 00                	jmp    404f1e <main+0x43ee>
  404f1e:	66 90                	xchg   %ax,%ax
  404f20:	48 8d a4 24 68 ff ff 	lea    -0x98(%rsp),%rsp
  404f27:	ff 
  404f28:	48 89 14 24          	mov    %rdx,(%rsp)
  404f2c:	48 89 4c 24 08       	mov    %rcx,0x8(%rsp)
  404f31:	48 89 44 24 10       	mov    %rax,0x10(%rsp)
  404f36:	48 c7 c1 fe 1c 00 00 	mov    $0x1cfe,%rcx
  404f3d:	e8 e6 02 00 00       	callq  405228 <__afl_maybe_log>
  404f42:	48 8b 44 24 10       	mov    0x10(%rsp),%rax
  404f47:	48 8b 4c 24 08       	mov    0x8(%rsp),%rcx
  404f4c:	48 8b 14 24          	mov    (%rsp),%rdx
  404f50:	48 8d a4 24 98 00 00 	lea    0x98(%rsp),%rsp
  404f57:	00 
  404f58:	eb 00                	jmp    404f5a <main+0x442a>
  404f5a:	66 90                	xchg   %ax,%ax
  404f5c:	48 8d a4 24 68 ff ff 	lea    -0x98(%rsp),%rsp
  404f63:	ff 
  404f64:	48 89 14 24          	mov    %rdx,(%rsp)
  404f68:	48 89 4c 24 08       	mov    %rcx,0x8(%rsp)
  404f6d:	48 89 44 24 10       	mov    %rax,0x10(%rsp)
  404f72:	48 c7 c1 09 f2 00 00 	mov    $0xf209,%rcx
  404f79:	e8 aa 02 00 00       	callq  405228 <__afl_maybe_log>
  404f7e:	48 8b 44 24 10       	mov    0x10(%rsp),%rax
  404f83:	48 8b 4c 24 08       	mov    0x8(%rsp),%rcx
  404f88:	48 8b 14 24          	mov    (%rsp),%rdx
  404f8c:	48 8d a4 24 98 00 00 	lea    0x98(%rsp),%rsp
  404f93:	00 
  404f94:	eb 00                	jmp    404f96 <main+0x4466>
  404f96:	66 90                	xchg   %ax,%ax
  404f98:	48 8d a4 24 68 ff ff 	lea    -0x98(%rsp),%rsp
  404f9f:	ff 
  404fa0:	48 89 14 24          	mov    %rdx,(%rsp)
  404fa4:	48 89 4c 24 08       	mov    %rcx,0x8(%rsp)
  404fa9:	48 89 44 24 10       	mov    %rax,0x10(%rsp)
  404fae:	48 c7 c1 2a 22 00 00 	mov    $0x222a,%rcx
  404fb5:	e8 6e 02 00 00       	callq  405228 <__afl_maybe_log>
  404fba:	48 8b 44 24 10       	mov    0x10(%rsp),%rax
  404fbf:	48 8b 4c 24 08       	mov    0x8(%rsp),%rcx
  404fc4:	48 8b 14 24          	mov    (%rsp),%rdx
  404fc8:	48 8d a4 24 98 00 00 	lea    0x98(%rsp),%rsp
  404fcf:	00 
  404fd0:	eb 00                	jmp    404fd2 <main+0x44a2>
  404fd2:	66 90                	xchg   %ax,%ax
  404fd4:	48 8d a4 24 68 ff ff 	lea    -0x98(%rsp),%rsp
  404fdb:	ff 
  404fdc:	48 89 14 24          	mov    %rdx,(%rsp)
  404fe0:	48 89 4c 24 08       	mov    %rcx,0x8(%rsp)
  404fe5:	48 89 44 24 10       	mov    %rax,0x10(%rsp)
  404fea:	48 c7 c1 a3 6d 00 00 	mov    $0x6da3,%rcx
  404ff1:	e8 32 02 00 00       	callq  405228 <__afl_maybe_log>
  404ff6:	48 8b 44 24 10       	mov    0x10(%rsp),%rax
  404ffb:	48 8b 4c 24 08       	mov    0x8(%rsp),%rcx
  405000:	48 8b 14 24          	mov    (%rsp),%rdx
  405004:	48 8d a4 24 98 00 00 	lea    0x98(%rsp),%rsp
  40500b:	00 
  40500c:	eb 00                	jmp    40500e <main+0x44de>
  40500e:	66 90                	xchg   %ax,%ax
  405010:	48 8d a4 24 68 ff ff 	lea    -0x98(%rsp),%rsp
  405017:	ff 
  405018:	48 89 14 24          	mov    %rdx,(%rsp)
  40501c:	48 89 4c 24 08       	mov    %rcx,0x8(%rsp)
  405021:	48 89 44 24 10       	mov    %rax,0x10(%rsp)
  405026:	48 c7 c1 e6 ae 00 00 	mov    $0xaee6,%rcx
  40502d:	e8 f6 01 00 00       	callq  405228 <__afl_maybe_log>
  405032:	48 8b 44 24 10       	mov    0x10(%rsp),%rax
  405037:	48 8b 4c 24 08       	mov    0x8(%rsp),%rcx
  40503c:	48 8b 14 24          	mov    (%rsp),%rdx
  405040:	48 8d a4 24 98 00 00 	lea    0x98(%rsp),%rsp
  405047:	00 
  405048:	eb 00                	jmp    40504a <main+0x451a>
  40504a:	66 90                	xchg   %ax,%ax
  40504c:	48 8d a4 24 68 ff ff 	lea    -0x98(%rsp),%rsp
  405053:	ff 
  405054:	48 89 14 24          	mov    %rdx,(%rsp)
  405058:	48 89 4c 24 08       	mov    %rcx,0x8(%rsp)
  40505d:	48 89 44 24 10       	mov    %rax,0x10(%rsp)
  405062:	48 c7 c1 fc fb 00 00 	mov    $0xfbfc,%rcx
  405069:	e8 ba 01 00 00       	callq  405228 <__afl_maybe_log>
  40506e:	48 8b 44 24 10       	mov    0x10(%rsp),%rax
  405073:	48 8b 4c 24 08       	mov    0x8(%rsp),%rcx
  405078:	48 8b 14 24          	mov    (%rsp),%rdx
  40507c:	48 8d a4 24 98 00 00 	lea    0x98(%rsp),%rsp
  405083:	00 
  405084:	eb 00                	jmp    405086 <main+0x4556>
  405086:	66 90                	xchg   %ax,%ax
  405088:	48 8d a4 24 68 ff ff 	lea    -0x98(%rsp),%rsp
  40508f:	ff 
  405090:	48 89 14 24          	mov    %rdx,(%rsp)
  405094:	48 89 4c 24 08       	mov    %rcx,0x8(%rsp)
  405099:	48 89 44 24 10       	mov    %rax,0x10(%rsp)
  40509e:	48 c7 c1 8e 2c 00 00 	mov    $0x2c8e,%rcx
  4050a5:	e8 7e 01 00 00       	callq  405228 <__afl_maybe_log>
  4050aa:	48 8b 44 24 10       	mov    0x10(%rsp),%rax
  4050af:	48 8b 4c 24 08       	mov    0x8(%rsp),%rcx
  4050b4:	48 8b 14 24          	mov    (%rsp),%rdx
  4050b8:	48 8d a4 24 98 00 00 	lea    0x98(%rsp),%rsp
  4050bf:	00 
  4050c0:	eb 00                	jmp    4050c2 <main+0x4592>
  4050c2:	66 90                	xchg   %ax,%ax
  4050c4:	48 8d a4 24 68 ff ff 	lea    -0x98(%rsp),%rsp
  4050cb:	ff 
  4050cc:	48 89 14 24          	mov    %rdx,(%rsp)
  4050d0:	48 89 4c 24 08       	mov    %rcx,0x8(%rsp)
  4050d5:	48 89 44 24 10       	mov    %rax,0x10(%rsp)
  4050da:	48 c7 c1 f2 d8 00 00 	mov    $0xd8f2,%rcx
  4050e1:	e8 42 01 00 00       	callq  405228 <__afl_maybe_log>
  4050e6:	48 8b 44 24 10       	mov    0x10(%rsp),%rax
  4050eb:	48 8b 4c 24 08       	mov    0x8(%rsp),%rcx
  4050f0:	48 8b 14 24          	mov    (%rsp),%rdx
  4050f4:	48 8d a4 24 98 00 00 	lea    0x98(%rsp),%rsp
  4050fb:	00 
  4050fc:	eb 00                	jmp    4050fe <main+0x45ce>
  4050fe:	66 90                	xchg   %ax,%ax
  405100:	48 8d a4 24 68 ff ff 	lea    -0x98(%rsp),%rsp
  405107:	ff 
  405108:	48 89 14 24          	mov    %rdx,(%rsp)
  40510c:	48 89 4c 24 08       	mov    %rcx,0x8(%rsp)
  405111:	48 89 44 24 10       	mov    %rax,0x10(%rsp)
  405116:	48 c7 c1 a0 ae 00 00 	mov    $0xaea0,%rcx
  40511d:	e8 06 01 00 00       	callq  405228 <__afl_maybe_log>
  405122:	48 8b 44 24 10       	mov    0x10(%rsp),%rax
  405127:	48 8b 4c 24 08       	mov    0x8(%rsp),%rcx
  40512c:	48 8b 14 24          	mov    (%rsp),%rdx
  405130:	48 8d a4 24 98 00 00 	lea    0x98(%rsp),%rsp
  405137:	00 
  405138:	eb 00                	jmp    40513a <main+0x460a>
  40513a:	66 90                	xchg   %ax,%ax
  40513c:	48 8d a4 24 68 ff ff 	lea    -0x98(%rsp),%rsp
  405143:	ff 
  405144:	48 89 14 24          	mov    %rdx,(%rsp)
  405148:	48 89 4c 24 08       	mov    %rcx,0x8(%rsp)
  40514d:	48 89 44 24 10       	mov    %rax,0x10(%rsp)
  405152:	48 c7 c1 fb 66 00 00 	mov    $0x66fb,%rcx
  405159:	e8 ca 00 00 00       	callq  405228 <__afl_maybe_log>
  40515e:	48 8b 44 24 10       	mov    0x10(%rsp),%rax
  405163:	48 8b 4c 24 08       	mov    0x8(%rsp),%rcx
  405168:	48 8b 14 24          	mov    (%rsp),%rdx
  40516c:	48 8d a4 24 98 00 00 	lea    0x98(%rsp),%rsp
  405173:	00 
  405174:	eb 00                	jmp    405176 <main+0x4646>
  405176:	66 90                	xchg   %ax,%ax
  405178:	48 8d a4 24 68 ff ff 	lea    -0x98(%rsp),%rsp
  40517f:	ff 
  405180:	48 89 14 24          	mov    %rdx,(%rsp)
  405184:	48 89 4c 24 08       	mov    %rcx,0x8(%rsp)
  405189:	48 89 44 24 10       	mov    %rax,0x10(%rsp)
  40518e:	48 c7 c1 81 fb 00 00 	mov    $0xfb81,%rcx
  405195:	e8 8e 00 00 00       	callq  405228 <__afl_maybe_log>
  40519a:	48 8b 44 24 10       	mov    0x10(%rsp),%rax
  40519f:	48 8b 4c 24 08       	mov    0x8(%rsp),%rcx
  4051a4:	48 8b 14 24          	mov    (%rsp),%rdx
  4051a8:	48 8d a4 24 98 00 00 	lea    0x98(%rsp),%rsp
  4051af:	00 
  4051b0:	eb 00                	jmp    4051b2 <main+0x4682>
  4051b2:	66 90                	xchg   %ax,%ax
  4051b4:	48 8d a4 24 68 ff ff 	lea    -0x98(%rsp),%rsp
  4051bb:	ff 
  4051bc:	48 89 14 24          	mov    %rdx,(%rsp)
  4051c0:	48 89 4c 24 08       	mov    %rcx,0x8(%rsp)
  4051c5:	48 89 44 24 10       	mov    %rax,0x10(%rsp)
  4051ca:	48 c7 c1 38 5f 00 00 	mov    $0x5f38,%rcx
  4051d1:	e8 52 00 00 00       	callq  405228 <__afl_maybe_log>
  4051d6:	48 8b 44 24 10       	mov    0x10(%rsp),%rax
  4051db:	48 8b 4c 24 08       	mov    0x8(%rsp),%rcx
  4051e0:	48 8b 14 24          	mov    (%rsp),%rdx
  4051e4:	48 8d a4 24 98 00 00 	lea    0x98(%rsp),%rsp
  4051eb:	00 
  4051ec:	bf 01 00 00 00       	mov    $0x1,%edi
  4051f1:	e8 7a b7 ff ff       	callq  400970 <sleep@plt>
  4051f6:	48 bf d3 56 40 00 00 	movabs $0x4056d3,%rdi
  4051fd:	00 00 00 
  405200:	89 85 fc fc ff ff    	mov    %eax,-0x304(%rbp)
  405206:	b0 00                	mov    $0x0,%al
  405208:	e8 23 b7 ff ff       	callq  400930 <printf@plt>
  40520d:	b9 ff ff ff ff       	mov    $0xffffffff,%ecx
  405212:	89 85 f8 fc ff ff    	mov    %eax,-0x308(%rbp)
  405218:	89 c8                	mov    %ecx,%eax
  40521a:	48 81 c4 10 03 00 00 	add    $0x310,%rsp
  405221:	5d                   	pop    %rbp
  405222:	c3                   	retq   
  405223:	0f 1f 44 00 00       	nopl   0x0(%rax,%rax,1)

0000000000405228 <__afl_maybe_log>:
  405228:	9f                   	lahf   
  405229:	0f 90 c0             	seto   %al
  40522c:	48 8b 15 9d 0e 20 00 	mov    0x200e9d(%rip),%rdx        # 6060d0 <__afl_area_ptr>
  405233:	48 85 d2             	test   %rdx,%rdx
  405236:	74 20                	je     405258 <__afl_setup>

0000000000405238 <__afl_store>:
  405238:	48 33 0d 99 0e 20 00 	xor    0x200e99(%rip),%rcx        # 6060d8 <__afl_prev_loc>
  40523f:	48 31 0d 92 0e 20 00 	xor    %rcx,0x200e92(%rip)        # 6060d8 <__afl_prev_loc>
  405246:	48 d1 2d 8b 0e 20 00 	shrq   0x200e8b(%rip)        # 6060d8 <__afl_prev_loc>
  40524d:	fe 04 0a             	incb   (%rdx,%rcx,1)

0000000000405250 <__afl_return>:
  405250:	04 7f                	add    $0x7f,%al
  405252:	9e                   	sahf   
  405253:	c3                   	retq   
  405254:	0f 1f 40 00          	nopl   0x0(%rax)

0000000000405258 <__afl_setup>:
  405258:	80 3d 89 0e 20 00 00 	cmpb   $0x0,0x200e89(%rip)        # 6060e8 <__afl_setup_failure>
  40525f:	75 ef                	jne    405250 <__afl_return>
  405261:	48 8d 15 88 0e 20 00 	lea    0x200e88(%rip),%rdx        # 6060f0 <__afl_global_area_ptr>
  405268:	48 8b 12             	mov    (%rdx),%rdx
  40526b:	48 85 d2             	test   %rdx,%rdx
  40526e:	74 09                	je     405279 <__afl_setup_first>
  405270:	48 89 15 59 0e 20 00 	mov    %rdx,0x200e59(%rip)        # 6060d0 <__afl_area_ptr>
  405277:	eb bf                	jmp    405238 <__afl_store>

0000000000405279 <__afl_setup_first>:
  405279:	48 8d a4 24 a0 fe ff 	lea    -0x160(%rsp),%rsp
  405280:	ff 
  405281:	48 89 04 24          	mov    %rax,(%rsp)
  405285:	48 89 4c 24 08       	mov    %rcx,0x8(%rsp)
  40528a:	48 89 7c 24 10       	mov    %rdi,0x10(%rsp)
  40528f:	48 89 74 24 20       	mov    %rsi,0x20(%rsp)
  405294:	4c 89 44 24 28       	mov    %r8,0x28(%rsp)
  405299:	4c 89 4c 24 30       	mov    %r9,0x30(%rsp)
  40529e:	4c 89 54 24 38       	mov    %r10,0x38(%rsp)
  4052a3:	4c 89 5c 24 40       	mov    %r11,0x40(%rsp)
  4052a8:	66 0f d6 44 24 60    	movq   %xmm0,0x60(%rsp)
  4052ae:	66 0f d6 4c 24 70    	movq   %xmm1,0x70(%rsp)
  4052b4:	66 0f d6 94 24 80 00 	movq   %xmm2,0x80(%rsp)
  4052bb:	00 00 
  4052bd:	66 0f d6 9c 24 90 00 	movq   %xmm3,0x90(%rsp)
  4052c4:	00 00 
  4052c6:	66 0f d6 a4 24 a0 00 	movq   %xmm4,0xa0(%rsp)
  4052cd:	00 00 
  4052cf:	66 0f d6 ac 24 b0 00 	movq   %xmm5,0xb0(%rsp)
  4052d6:	00 00 
  4052d8:	66 0f d6 b4 24 c0 00 	movq   %xmm6,0xc0(%rsp)
  4052df:	00 00 
  4052e1:	66 0f d6 bc 24 d0 00 	movq   %xmm7,0xd0(%rsp)
  4052e8:	00 00 
  4052ea:	66 44 0f d6 84 24 e0 	movq   %xmm8,0xe0(%rsp)
  4052f1:	00 00 00 
  4052f4:	66 44 0f d6 8c 24 f0 	movq   %xmm9,0xf0(%rsp)
  4052fb:	00 00 00 
  4052fe:	66 44 0f d6 94 24 00 	movq   %xmm10,0x100(%rsp)
  405305:	01 00 00 
  405308:	66 44 0f d6 9c 24 10 	movq   %xmm11,0x110(%rsp)
  40530f:	01 00 00 
  405312:	66 44 0f d6 a4 24 20 	movq   %xmm12,0x120(%rsp)
  405319:	01 00 00 
  40531c:	66 44 0f d6 ac 24 30 	movq   %xmm13,0x130(%rsp)
  405323:	01 00 00 
  405326:	66 44 0f d6 b4 24 40 	movq   %xmm14,0x140(%rsp)
  40532d:	01 00 00 
  405330:	66 44 0f d6 bc 24 50 	movq   %xmm15,0x150(%rsp)
  405337:	01 00 00 
  40533a:	41 54                	push   %r12
  40533c:	49 89 e4             	mov    %rsp,%r12
  40533f:	48 83 ec 10          	sub    $0x10,%rsp
  405343:	48 83 e4 f0          	and    $0xfffffffffffffff0,%rsp
  405347:	48 8d 3d c1 02 00 00 	lea    0x2c1(%rip),%rdi        # 40560f <.AFL_SHM_ENV>
  40534e:	e8 5d b6 ff ff       	callq  4009b0 <getenv@plt>
  405353:	48 85 c0             	test   %rax,%rax
  405356:	0f 84 e2 01 00 00    	je     40553e <__afl_setup_abort>
  40535c:	48 89 c7             	mov    %rax,%rdi
  40535f:	e8 7c b6 ff ff       	callq  4009e0 <atoi@plt>
  405364:	48 31 d2             	xor    %rdx,%rdx
  405367:	48 31 f6             	xor    %rsi,%rsi
  40536a:	48 89 c7             	mov    %rax,%rdi
  40536d:	e8 4e b6 ff ff       	callq  4009c0 <shmat@plt>
  405372:	48 83 f8 ff          	cmp    $0xffffffffffffffff,%rax
  405376:	0f 84 c2 01 00 00    	je     40553e <__afl_setup_abort>
  40537c:	48 89 c2             	mov    %rax,%rdx
  40537f:	48 89 05 4a 0d 20 00 	mov    %rax,0x200d4a(%rip)        # 6060d0 <__afl_area_ptr>
  405386:	48 8d 15 63 0d 20 00 	lea    0x200d63(%rip),%rdx        # 6060f0 <__afl_global_area_ptr>
  40538d:	48 89 02             	mov    %rax,(%rdx)
  405390:	48 89 c2             	mov    %rax,%rdx

0000000000405393 <__afl_forkserver>:
  405393:	52                   	push   %rdx
  405394:	52                   	push   %rdx
  405395:	48 c7 c2 04 00 00 00 	mov    $0x4,%rdx
  40539c:	48 8d 35 41 0d 20 00 	lea    0x200d41(%rip),%rsi        # 6060e4 <__afl_temp>
  4053a3:	48 c7 c7 c7 00 00 00 	mov    $0xc7,%rdi
  4053aa:	e8 b1 b5 ff ff       	callq  400960 <write@plt>
  4053af:	48 83 f8 04          	cmp    $0x4,%rax
  4053b3:	0f 85 98 00 00 00    	jne    405451 <__afl_fork_resume>

00000000004053b9 <__afl_fork_wait_loop>:
  4053b9:	48 c7 c2 04 00 00 00 	mov    $0x4,%rdx
  4053c0:	48 8d 35 1d 0d 20 00 	lea    0x200d1d(%rip),%rsi        # 6060e4 <__afl_temp>
  4053c7:	48 c7 c7 c6 00 00 00 	mov    $0xc6,%rdi
  4053ce:	e8 fd b5 ff ff       	callq  4009d0 <read@plt>
  4053d3:	48 83 f8 04          	cmp    $0x4,%rax
  4053d7:	0f 85 59 01 00 00    	jne    405536 <__afl_die>
  4053dd:	e8 5e b5 ff ff       	callq  400940 <fork@plt>
  4053e2:	48 83 f8 00          	cmp    $0x0,%rax
  4053e6:	0f 8c 4a 01 00 00    	jl     405536 <__afl_die>
  4053ec:	74 63                	je     405451 <__afl_fork_resume>
  4053ee:	89 05 ec 0c 20 00    	mov    %eax,0x200cec(%rip)        # 6060e0 <__afl_fork_pid>
  4053f4:	48 c7 c2 04 00 00 00 	mov    $0x4,%rdx
  4053fb:	48 8d 35 de 0c 20 00 	lea    0x200cde(%rip),%rsi        # 6060e0 <__afl_fork_pid>
  405402:	48 c7 c7 c7 00 00 00 	mov    $0xc7,%rdi
  405409:	e8 52 b5 ff ff       	callq  400960 <write@plt>
  40540e:	48 c7 c2 00 00 00 00 	mov    $0x0,%rdx
  405415:	48 8d 35 c8 0c 20 00 	lea    0x200cc8(%rip),%rsi        # 6060e4 <__afl_temp>
  40541c:	48 8b 3d bd 0c 20 00 	mov    0x200cbd(%rip),%rdi        # 6060e0 <__afl_fork_pid>
  405423:	e8 58 b5 ff ff       	callq  400980 <waitpid@plt>
  405428:	48 83 f8 00          	cmp    $0x0,%rax
  40542c:	0f 8e 04 01 00 00    	jle    405536 <__afl_die>
  405432:	48 c7 c2 04 00 00 00 	mov    $0x4,%rdx
  405439:	48 8d 35 a4 0c 20 00 	lea    0x200ca4(%rip),%rsi        # 6060e4 <__afl_temp>
  405440:	48 c7 c7 c7 00 00 00 	mov    $0xc7,%rdi
  405447:	e8 14 b5 ff ff       	callq  400960 <write@plt>
  40544c:	e9 68 ff ff ff       	jmpq   4053b9 <__afl_fork_wait_loop>

0000000000405451 <__afl_fork_resume>:
  405451:	48 c7 c7 c6 00 00 00 	mov    $0xc6,%rdi
  405458:	e8 b3 b5 ff ff       	callq  400a10 <close@plt>
  40545d:	48 c7 c7 c7 00 00 00 	mov    $0xc7,%rdi
  405464:	e8 a7 b5 ff ff       	callq  400a10 <close@plt>
  405469:	5a                   	pop    %rdx
  40546a:	5a                   	pop    %rdx
  40546b:	4c 89 e4             	mov    %r12,%rsp
  40546e:	41 5c                	pop    %r12
  405470:	48 8b 04 24          	mov    (%rsp),%rax
  405474:	48 8b 4c 24 08       	mov    0x8(%rsp),%rcx
  405479:	48 8b 7c 24 10       	mov    0x10(%rsp),%rdi
  40547e:	48 8b 74 24 20       	mov    0x20(%rsp),%rsi
  405483:	4c 8b 44 24 28       	mov    0x28(%rsp),%r8
  405488:	4c 8b 4c 24 30       	mov    0x30(%rsp),%r9
  40548d:	4c 8b 54 24 38       	mov    0x38(%rsp),%r10
  405492:	4c 8b 5c 24 40       	mov    0x40(%rsp),%r11
  405497:	f3 0f 7e 44 24 60    	movq   0x60(%rsp),%xmm0
  40549d:	f3 0f 7e 4c 24 70    	movq   0x70(%rsp),%xmm1
  4054a3:	f3 0f 7e 94 24 80 00 	movq   0x80(%rsp),%xmm2
  4054aa:	00 00 
  4054ac:	f3 0f 7e 9c 24 90 00 	movq   0x90(%rsp),%xmm3
  4054b3:	00 00 
  4054b5:	f3 0f 7e a4 24 a0 00 	movq   0xa0(%rsp),%xmm4
  4054bc:	00 00 
  4054be:	f3 0f 7e ac 24 b0 00 	movq   0xb0(%rsp),%xmm5
  4054c5:	00 00 
  4054c7:	f3 0f 7e b4 24 c0 00 	movq   0xc0(%rsp),%xmm6
  4054ce:	00 00 
  4054d0:	f3 0f 7e bc 24 d0 00 	movq   0xd0(%rsp),%xmm7
  4054d7:	00 00 
  4054d9:	f3 44 0f 7e 84 24 e0 	movq   0xe0(%rsp),%xmm8
  4054e0:	00 00 00 
  4054e3:	f3 44 0f 7e 8c 24 f0 	movq   0xf0(%rsp),%xmm9
  4054ea:	00 00 00 
  4054ed:	f3 44 0f 7e 94 24 00 	movq   0x100(%rsp),%xmm10
  4054f4:	01 00 00 
  4054f7:	f3 44 0f 7e 9c 24 10 	movq   0x110(%rsp),%xmm11
  4054fe:	01 00 00 
  405501:	f3 44 0f 7e a4 24 20 	movq   0x120(%rsp),%xmm12
  405508:	01 00 00 
  40550b:	f3 44 0f 7e ac 24 30 	movq   0x130(%rsp),%xmm13
  405512:	01 00 00 
  405515:	f3 44 0f 7e b4 24 40 	movq   0x140(%rsp),%xmm14
  40551c:	01 00 00 
  40551f:	f3 44 0f 7e bc 24 50 	movq   0x150(%rsp),%xmm15
  405526:	01 00 00 
  405529:	48 8d a4 24 60 01 00 	lea    0x160(%rsp),%rsp
  405530:	00 
  405531:	e9 02 fd ff ff       	jmpq   405238 <__afl_store>

0000000000405536 <__afl_die>:
  405536:	48 31 c0             	xor    %rax,%rax
  405539:	e8 b2 b4 ff ff       	callq  4009f0 <_exit@plt>

000000000040553e <__afl_setup_abort>:
  40553e:	fe 05 a4 0b 20 00    	incb   0x200ba4(%rip)        # 6060e8 <__afl_setup_failure>
  405544:	4c 89 e4             	mov    %r12,%rsp
  405547:	41 5c                	pop    %r12
  405549:	48 8b 04 24          	mov    (%rsp),%rax
  40554d:	48 8b 4c 24 08       	mov    0x8(%rsp),%rcx
  405552:	48 8b 7c 24 10       	mov    0x10(%rsp),%rdi
  405557:	48 8b 74 24 20       	mov    0x20(%rsp),%rsi
  40555c:	4c 8b 44 24 28       	mov    0x28(%rsp),%r8
  405561:	4c 8b 4c 24 30       	mov    0x30(%rsp),%r9
  405566:	4c 8b 54 24 38       	mov    0x38(%rsp),%r10
  40556b:	4c 8b 5c 24 40       	mov    0x40(%rsp),%r11
  405570:	f3 0f 7e 44 24 60    	movq   0x60(%rsp),%xmm0
  405576:	f3 0f 7e 4c 24 70    	movq   0x70(%rsp),%xmm1
  40557c:	f3 0f 7e 94 24 80 00 	movq   0x80(%rsp),%xmm2
  405583:	00 00 
  405585:	f3 0f 7e 9c 24 90 00 	movq   0x90(%rsp),%xmm3
  40558c:	00 00 
  40558e:	f3 0f 7e a4 24 a0 00 	movq   0xa0(%rsp),%xmm4
  405595:	00 00 
  405597:	f3 0f 7e ac 24 b0 00 	movq   0xb0(%rsp),%xmm5
  40559e:	00 00 
  4055a0:	f3 0f 7e b4 24 c0 00 	movq   0xc0(%rsp),%xmm6
  4055a7:	00 00 
  4055a9:	f3 0f 7e bc 24 d0 00 	movq   0xd0(%rsp),%xmm7
  4055b0:	00 00 
  4055b2:	f3 44 0f 7e 84 24 e0 	movq   0xe0(%rsp),%xmm8
  4055b9:	00 00 00 
  4055bc:	f3 44 0f 7e 8c 24 f0 	movq   0xf0(%rsp),%xmm9
  4055c3:	00 00 00 
  4055c6:	f3 44 0f 7e 94 24 00 	movq   0x100(%rsp),%xmm10
  4055cd:	01 00 00 
  4055d0:	f3 44 0f 7e 9c 24 10 	movq   0x110(%rsp),%xmm11
  4055d7:	01 00 00 
  4055da:	f3 44 0f 7e a4 24 20 	movq   0x120(%rsp),%xmm12
  4055e1:	01 00 00 
  4055e4:	f3 44 0f 7e ac 24 30 	movq   0x130(%rsp),%xmm13
  4055eb:	01 00 00 
  4055ee:	f3 44 0f 7e b4 24 40 	movq   0x140(%rsp),%xmm14
  4055f5:	01 00 00 
  4055f8:	f3 44 0f 7e bc 24 50 	movq   0x150(%rsp),%xmm15
  4055ff:	01 00 00 
  405602:	48 8d a4 24 60 01 00 	lea    0x160(%rsp),%rsp
  405609:	00 
  40560a:	e9 41 fc ff ff       	jmpq   405250 <__afl_return>

000000000040560f <.AFL_SHM_ENV>:
  40560f:	5f                   	pop    %rdi
  405610:	5f                   	pop    %rdi
  405611:	41                   	rex.B
  405612:	46                   	rex.RX
  405613:	4c 5f                	rex.WR pop %rdi
  405615:	53                   	push   %rbx
  405616:	48                   	rex.W
  405617:	4d 5f                	rex.WRB pop %r15
  405619:	49                   	rex.WB
  40561a:	44 00 0f             	add    %r9b,(%rdi)
  40561d:	1f                   	(bad)  
  40561e:	40                   	rex
	...

0000000000405620 <__libc_csu_init>:
  405620:	41 57                	push   %r15
  405622:	41 56                	push   %r14
  405624:	41 89 ff             	mov    %edi,%r15d
  405627:	41 55                	push   %r13
  405629:	41 54                	push   %r12
  40562b:	4c 8d 25 be 07 20 00 	lea    0x2007be(%rip),%r12        # 605df0 <__frame_dummy_init_array_entry>
  405632:	55                   	push   %rbp
  405633:	48 8d 2d be 07 20 00 	lea    0x2007be(%rip),%rbp        # 605df8 <__init_array_end>
  40563a:	53                   	push   %rbx
  40563b:	49 89 f6             	mov    %rsi,%r14
  40563e:	49 89 d5             	mov    %rdx,%r13
  405641:	4c 29 e5             	sub    %r12,%rbp
  405644:	48 83 ec 08          	sub    $0x8,%rsp
  405648:	48 c1 fd 03          	sar    $0x3,%rbp
  40564c:	e8 97 b2 ff ff       	callq  4008e8 <_init>
  405651:	48 85 ed             	test   %rbp,%rbp
  405654:	74 20                	je     405676 <__libc_csu_init+0x56>
  405656:	31 db                	xor    %ebx,%ebx
  405658:	0f 1f 84 00 00 00 00 	nopl   0x0(%rax,%rax,1)
  40565f:	00 
  405660:	4c 89 ea             	mov    %r13,%rdx
  405663:	4c 89 f6             	mov    %r14,%rsi
  405666:	44 89 ff             	mov    %r15d,%edi
  405669:	41 ff 14 dc          	callq  *(%r12,%rbx,8)
  40566d:	48 83 c3 01          	add    $0x1,%rbx
  405671:	48 39 eb             	cmp    %rbp,%rbx
  405674:	75 ea                	jne    405660 <__libc_csu_init+0x40>
  405676:	48 83 c4 08          	add    $0x8,%rsp
  40567a:	5b                   	pop    %rbx
  40567b:	5d                   	pop    %rbp
  40567c:	41 5c                	pop    %r12
  40567e:	41 5d                	pop    %r13
  405680:	41 5e                	pop    %r14
  405682:	41 5f                	pop    %r15
  405684:	c3                   	retq   
  405685:	90                   	nop
  405686:	66 2e 0f 1f 84 00 00 	nopw   %cs:0x0(%rax,%rax,1)
  40568d:	00 00 00 

0000000000405690 <__libc_csu_fini>:
  405690:	f3 c3                	repz retq 

Disassembly of section .fini:

0000000000405694 <_fini>:
  405694:	48 83 ec 08          	sub    $0x8,%rsp
  405698:	48 83 c4 08          	add    $0x8,%rsp
  40569c:	c3                   	retq   
